
Project1401f.elf:     file format elf32-littlearm

Sections:
Idx Name          Size      VMA       LMA       File off  Algn
  0 .text         0000354c  00080000  00080000  00008000  2**2
                  CONTENTS, ALLOC, LOAD, READONLY, CODE
  1 .relocate     00000974  20070000  0008354c  00010000  2**3
                  CONTENTS, ALLOC, LOAD, CODE
  2 .bss          00000208  20070974  00083ec0  00010974  2**2
                  ALLOC
  3 .stack        00002004  20070b7c  000840c8  00010974  2**0
                  ALLOC
  4 .ARM.attributes 00000029  00000000  00000000  00010974  2**0
                  CONTENTS, READONLY
  5 .comment      0000005b  00000000  00000000  0001099d  2**0
                  CONTENTS, READONLY
  6 .debug_info   0001167f  00000000  00000000  000109f8  2**0
                  CONTENTS, READONLY, DEBUGGING
  7 .debug_abbrev 00002d59  00000000  00000000  00022077  2**0
                  CONTENTS, READONLY, DEBUGGING
  8 .debug_loc    00006726  00000000  00000000  00024dd0  2**0
                  CONTENTS, READONLY, DEBUGGING
  9 .debug_aranges 00000c88  00000000  00000000  0002b4f6  2**0
                  CONTENTS, READONLY, DEBUGGING
 10 .debug_ranges 00000b20  00000000  00000000  0002c17e  2**0
                  CONTENTS, READONLY, DEBUGGING
 11 .debug_macro  0001a84a  00000000  00000000  0002cc9e  2**0
                  CONTENTS, READONLY, DEBUGGING
 12 .debug_line   00012564  00000000  00000000  000474e8  2**0
                  CONTENTS, READONLY, DEBUGGING
 13 .debug_str    0006c081  00000000  00000000  00059a4c  2**0
                  CONTENTS, READONLY, DEBUGGING
 14 .debug_frame  000021c8  00000000  00000000  000c5ad0  2**2
                  CONTENTS, READONLY, DEBUGGING

Disassembly of section .text:

00080000 <_sfixed>:
   80000:	20072b80 	.word	0x20072b80
   80004:	00081e1d 	.word	0x00081e1d
   80008:	00081e19 	.word	0x00081e19
   8000c:	00081e19 	.word	0x00081e19
   80010:	00081e19 	.word	0x00081e19
   80014:	00081e19 	.word	0x00081e19
   80018:	00081e19 	.word	0x00081e19
	...
   8002c:	00081e19 	.word	0x00081e19
   80030:	00081e19 	.word	0x00081e19
   80034:	00000000 	.word	0x00000000
   80038:	00081e19 	.word	0x00081e19
   8003c:	00081e19 	.word	0x00081e19
   80040:	00081e19 	.word	0x00081e19
   80044:	00081e19 	.word	0x00081e19
   80048:	00081e19 	.word	0x00081e19
   8004c:	00081e19 	.word	0x00081e19
   80050:	00081e19 	.word	0x00081e19
   80054:	00081e19 	.word	0x00081e19
   80058:	00081e19 	.word	0x00081e19
   8005c:	00081e19 	.word	0x00081e19
   80060:	00081e19 	.word	0x00081e19
   80064:	00081e19 	.word	0x00081e19
   80068:	00000000 	.word	0x00000000
   8006c:	00081c89 	.word	0x00081c89
   80070:	00081c9d 	.word	0x00081c9d
   80074:	00081cb1 	.word	0x00081cb1
   80078:	00081cc5 	.word	0x00081cc5
	...
   80084:	000801b5 	.word	0x000801b5
   80088:	00081e19 	.word	0x00081e19
   8008c:	00081e19 	.word	0x00081e19
   80090:	00081e19 	.word	0x00081e19
   80094:	00081e19 	.word	0x00081e19
   80098:	00081e19 	.word	0x00081e19
   8009c:	00081e19 	.word	0x00081e19
   800a0:	00081e19 	.word	0x00081e19
   800a4:	00000000 	.word	0x00000000
   800a8:	00081e19 	.word	0x00081e19
   800ac:	00081e19 	.word	0x00081e19
   800b0:	00081e19 	.word	0x00081e19
   800b4:	00081e19 	.word	0x00081e19
   800b8:	00081e19 	.word	0x00081e19
   800bc:	00081e19 	.word	0x00081e19
   800c0:	00081e19 	.word	0x00081e19
   800c4:	00081e19 	.word	0x00081e19
   800c8:	00081e19 	.word	0x00081e19
   800cc:	00081e19 	.word	0x00081e19
   800d0:	00081e19 	.word	0x00081e19
   800d4:	00081e19 	.word	0x00081e19
   800d8:	00081e19 	.word	0x00081e19
   800dc:	00081e19 	.word	0x00081e19
   800e0:	00081e19 	.word	0x00081e19
   800e4:	00081e19 	.word	0x00081e19
   800e8:	00081e19 	.word	0x00081e19
   800ec:	00081e19 	.word	0x00081e19
   800f0:	00081e19 	.word	0x00081e19

000800f4 <__do_global_dtors_aux>:
   800f4:	b510      	push	{r4, lr}
   800f6:	4c05      	ldr	r4, [pc, #20]	; (8010c <__do_global_dtors_aux+0x18>)
   800f8:	7823      	ldrb	r3, [r4, #0]
   800fa:	b933      	cbnz	r3, 8010a <__do_global_dtors_aux+0x16>
   800fc:	4b04      	ldr	r3, [pc, #16]	; (80110 <__do_global_dtors_aux+0x1c>)
   800fe:	b113      	cbz	r3, 80106 <__do_global_dtors_aux+0x12>
   80100:	4804      	ldr	r0, [pc, #16]	; (80114 <__do_global_dtors_aux+0x20>)
   80102:	f3af 8000 	nop.w
   80106:	2301      	movs	r3, #1
   80108:	7023      	strb	r3, [r4, #0]
   8010a:	bd10      	pop	{r4, pc}
   8010c:	20070974 	.word	0x20070974
   80110:	00000000 	.word	0x00000000
   80114:	0008354c 	.word	0x0008354c

00080118 <frame_dummy>:
   80118:	b508      	push	{r3, lr}
   8011a:	4b06      	ldr	r3, [pc, #24]	; (80134 <frame_dummy+0x1c>)
   8011c:	b11b      	cbz	r3, 80126 <frame_dummy+0xe>
   8011e:	4806      	ldr	r0, [pc, #24]	; (80138 <frame_dummy+0x20>)
   80120:	4906      	ldr	r1, [pc, #24]	; (8013c <frame_dummy+0x24>)
   80122:	f3af 8000 	nop.w
   80126:	4806      	ldr	r0, [pc, #24]	; (80140 <frame_dummy+0x28>)
   80128:	6803      	ldr	r3, [r0, #0]
   8012a:	b113      	cbz	r3, 80132 <frame_dummy+0x1a>
   8012c:	4b05      	ldr	r3, [pc, #20]	; (80144 <frame_dummy+0x2c>)
   8012e:	b103      	cbz	r3, 80132 <frame_dummy+0x1a>
   80130:	4798      	blx	r3
   80132:	bd08      	pop	{r3, pc}
   80134:	00000000 	.word	0x00000000
   80138:	0008354c 	.word	0x0008354c
   8013c:	20070978 	.word	0x20070978
   80140:	0008354c 	.word	0x0008354c
   80144:	00000000 	.word	0x00000000

00080148 <_read>:
   80148:	e92d 41f0 	stmdb	sp!, {r4, r5, r6, r7, r8, lr}
   8014c:	460c      	mov	r4, r1
   8014e:	4690      	mov	r8, r2
   80150:	b960      	cbnz	r0, 8016c <_read+0x24>
   80152:	2a00      	cmp	r2, #0
   80154:	dd0e      	ble.n	80174 <_read+0x2c>
   80156:	188f      	adds	r7, r1, r2
   80158:	4e09      	ldr	r6, [pc, #36]	; (80180 <_read+0x38>)
   8015a:	4d0a      	ldr	r5, [pc, #40]	; (80184 <_read+0x3c>)
   8015c:	6830      	ldr	r0, [r6, #0]
   8015e:	4621      	mov	r1, r4
   80160:	682b      	ldr	r3, [r5, #0]
   80162:	4798      	blx	r3
   80164:	3401      	adds	r4, #1
   80166:	42bc      	cmp	r4, r7
   80168:	d1f8      	bne.n	8015c <_read+0x14>
   8016a:	e006      	b.n	8017a <_read+0x32>
   8016c:	f04f 30ff 	mov.w	r0, #4294967295
   80170:	e8bd 81f0 	ldmia.w	sp!, {r4, r5, r6, r7, r8, pc}
   80174:	2000      	movs	r0, #0
   80176:	e8bd 81f0 	ldmia.w	sp!, {r4, r5, r6, r7, r8, pc}
   8017a:	4640      	mov	r0, r8
   8017c:	e8bd 81f0 	ldmia.w	sp!, {r4, r5, r6, r7, r8, pc}
   80180:	20070af8 	.word	0x20070af8
   80184:	20070ad8 	.word	0x20070ad8

00080188 <usart_write>:
   80188:	6943      	ldr	r3, [r0, #20]
   8018a:	f013 0f02 	tst.w	r3, #2
   8018e:	bf1d      	ittte	ne
   80190:	f3c1 0108 	ubfxne	r1, r1, #0, #9
   80194:	61c1      	strne	r1, [r0, #28]
   80196:	2000      	movne	r0, #0
   80198:	2001      	moveq	r0, #1
   8019a:	4770      	bx	lr

0008019c <usart_read>:
   8019c:	6943      	ldr	r3, [r0, #20]
   8019e:	f013 0f01 	tst.w	r3, #1
   801a2:	d005      	beq.n	801b0 <usart_read+0x14>
   801a4:	6983      	ldr	r3, [r0, #24]
   801a6:	f3c3 0308 	ubfx	r3, r3, #0, #9
   801aa:	600b      	str	r3, [r1, #0]
   801ac:	2000      	movs	r0, #0
   801ae:	4770      	bx	lr
   801b0:	2001      	movs	r0, #1
   801b2:	4770      	bx	lr

000801b4 <USART0_Handler>:
   801b4:	b500      	push	{lr}
   801b6:	b083      	sub	sp, #12
   801b8:	4811      	ldr	r0, [pc, #68]	; (80200 <USART0_Handler+0x4c>)
   801ba:	f10d 0107 	add.w	r1, sp, #7
   801be:	2201      	movs	r2, #1
   801c0:	4b10      	ldr	r3, [pc, #64]	; (80204 <USART0_Handler+0x50>)
   801c2:	4798      	blx	r3
   801c4:	b672      	cpsid	i
   801c6:	f3bf 8f5f 	dmb	sy
   801ca:	2200      	movs	r2, #0
   801cc:	4b0e      	ldr	r3, [pc, #56]	; (80208 <USART0_Handler+0x54>)
   801ce:	701a      	strb	r2, [r3, #0]
   801d0:	4b0e      	ldr	r3, [pc, #56]	; (8020c <USART0_Handler+0x58>)
   801d2:	781b      	ldrb	r3, [r3, #0]
   801d4:	f89d 1007 	ldrb.w	r1, [sp, #7]
   801d8:	4a0d      	ldr	r2, [pc, #52]	; (80210 <USART0_Handler+0x5c>)
   801da:	54d1      	strb	r1, [r2, r3]
   801dc:	2b9b      	cmp	r3, #155	; 0x9b
   801de:	d103      	bne.n	801e8 <USART0_Handler+0x34>
   801e0:	2200      	movs	r2, #0
   801e2:	4b0a      	ldr	r3, [pc, #40]	; (8020c <USART0_Handler+0x58>)
   801e4:	701a      	strb	r2, [r3, #0]
   801e6:	e002      	b.n	801ee <USART0_Handler+0x3a>
   801e8:	3301      	adds	r3, #1
   801ea:	4a08      	ldr	r2, [pc, #32]	; (8020c <USART0_Handler+0x58>)
   801ec:	7013      	strb	r3, [r2, #0]
   801ee:	2201      	movs	r2, #1
   801f0:	4b05      	ldr	r3, [pc, #20]	; (80208 <USART0_Handler+0x54>)
   801f2:	701a      	strb	r2, [r3, #0]
   801f4:	f3bf 8f5f 	dmb	sy
   801f8:	b662      	cpsie	i
   801fa:	b003      	add	sp, #12
   801fc:	f85d fb04 	ldr.w	pc, [sp], #4
   80200:	40098000 	.word	0x40098000
   80204:	0008051d 	.word	0x0008051d
   80208:	2007012c 	.word	0x2007012c
   8020c:	20070a2c 	.word	0x20070a2c
   80210:	20070990 	.word	0x20070990

00080214 <startCodeLock>:
 * The assignment of the pointer to the memory area for the state machine,
 * instance = &SM, is done in test_FSM_runner.c
 */

void startCodeLock(codeLockPtrType foo) /* Maing sure the FSM starts in the right state */
{
   80214:	4770      	bx	lr
   80216:	bf00      	nop

00080218 <pushButton1>:
	/* Write code here */
}

void pushButton1(codeLockPtrType foo)		/* Yellow button is pushed */
{
   80218:	4770      	bx	lr
   8021a:	bf00      	nop

0008021c <pushButton2>:
	/* Write code here */
}

void pushButton2(codeLockPtrType foo)		/* Red button is pushed */
{
   8021c:	4770      	bx	lr
   8021e:	bf00      	nop

00080220 <pushButton3>:
	/* Write code here */
}

void pushButton3(codeLockPtrType foo)		/* Green button is pushed */
{
   80220:	4770      	bx	lr
   80222:	bf00      	nop

00080224 <releaseButton>:
	/* Write code here */
}

void releaseButton(codeLockPtrType foo)	/* No button is pushed */
{
   80224:	4770      	bx	lr
   80226:	bf00      	nop

00080228 <test_stateMachineStartsInLockedState>:

extern codeLockType SM;			/* The memory area for the state machine */
extern codeLockPtrType instance;	/* A pointer to a state machine of this type */

void test_stateMachineStartsInLockedState(void)
{
   80228:	b510      	push	{r4, lr}
	instance->state = OPEN;
   8022a:	4c07      	ldr	r4, [pc, #28]	; (80248 <test_stateMachineStartsInLockedState+0x20>)
   8022c:	6823      	ldr	r3, [r4, #0]
   8022e:	2208      	movs	r2, #8
   80230:	701a      	strb	r2, [r3, #0]
	startCodeLock(instance);
   80232:	6820      	ldr	r0, [r4, #0]
   80234:	4b05      	ldr	r3, [pc, #20]	; (8024c <test_stateMachineStartsInLockedState+0x24>)
   80236:	4798      	blx	r3
	TEST_ASSERT_TRUE(instance->state == Locked);
   80238:	6823      	ldr	r3, [r4, #0]
   8023a:	781b      	ldrb	r3, [r3, #0]
   8023c:	b11b      	cbz	r3, 80246 <test_stateMachineStartsInLockedState+0x1e>
   8023e:	4804      	ldr	r0, [pc, #16]	; (80250 <test_stateMachineStartsInLockedState+0x28>)
   80240:	2119      	movs	r1, #25
   80242:	4b04      	ldr	r3, [pc, #16]	; (80254 <test_stateMachineStartsInLockedState+0x2c>)
   80244:	4798      	blx	r3
   80246:	bd10      	pop	{r4, pc}
   80248:	20070af0 	.word	0x20070af0
   8024c:	00080215 	.word	0x00080215
   80250:	000831f4 	.word	0x000831f4
   80254:	000815ed 	.word	0x000815ed

00080258 <test_stateGoesToPushOneWhenFirstCorrectButtonIsPressed>:
}

void test_stateGoesToPushOneWhenFirstCorrectButtonIsPressed(void)
{
   80258:	b510      	push	{r4, lr}
	instance->state = Locked;
   8025a:	4c0e      	ldr	r4, [pc, #56]	; (80294 <test_stateGoesToPushOneWhenFirstCorrectButtonIsPressed+0x3c>)
   8025c:	6823      	ldr	r3, [r4, #0]
   8025e:	2200      	movs	r2, #0
   80260:	701a      	strb	r2, [r3, #0]
	pushButton1(instance);
   80262:	6820      	ldr	r0, [r4, #0]
   80264:	4b0c      	ldr	r3, [pc, #48]	; (80298 <test_stateGoesToPushOneWhenFirstCorrectButtonIsPressed+0x40>)
   80266:	4798      	blx	r3
	TEST_ASSERT_TRUE(instance->state == PushOne);
   80268:	6823      	ldr	r3, [r4, #0]
   8026a:	781b      	ldrb	r3, [r3, #0]
   8026c:	2b01      	cmp	r3, #1
   8026e:	d003      	beq.n	80278 <test_stateGoesToPushOneWhenFirstCorrectButtonIsPressed+0x20>
   80270:	480a      	ldr	r0, [pc, #40]	; (8029c <test_stateGoesToPushOneWhenFirstCorrectButtonIsPressed+0x44>)
   80272:	2120      	movs	r1, #32
   80274:	4b0a      	ldr	r3, [pc, #40]	; (802a0 <test_stateGoesToPushOneWhenFirstCorrectButtonIsPressed+0x48>)
   80276:	4798      	blx	r3
	releaseButton(instance);
   80278:	4c06      	ldr	r4, [pc, #24]	; (80294 <test_stateGoesToPushOneWhenFirstCorrectButtonIsPressed+0x3c>)
   8027a:	6820      	ldr	r0, [r4, #0]
   8027c:	4b09      	ldr	r3, [pc, #36]	; (802a4 <test_stateGoesToPushOneWhenFirstCorrectButtonIsPressed+0x4c>)
   8027e:	4798      	blx	r3
	TEST_ASSERT_TRUE(instance->state == ReleaseOne);
   80280:	6823      	ldr	r3, [r4, #0]
   80282:	781b      	ldrb	r3, [r3, #0]
   80284:	2b02      	cmp	r3, #2
   80286:	d003      	beq.n	80290 <test_stateGoesToPushOneWhenFirstCorrectButtonIsPressed+0x38>
   80288:	4804      	ldr	r0, [pc, #16]	; (8029c <test_stateGoesToPushOneWhenFirstCorrectButtonIsPressed+0x44>)
   8028a:	2122      	movs	r1, #34	; 0x22
   8028c:	4b04      	ldr	r3, [pc, #16]	; (802a0 <test_stateGoesToPushOneWhenFirstCorrectButtonIsPressed+0x48>)
   8028e:	4798      	blx	r3
   80290:	bd10      	pop	{r4, pc}
   80292:	bf00      	nop
   80294:	20070af0 	.word	0x20070af0
   80298:	00080219 	.word	0x00080219
   8029c:	000831f4 	.word	0x000831f4
   802a0:	000815ed 	.word	0x000815ed
   802a4:	00080225 	.word	0x00080225

000802a8 <test_stateGoesToLockedWhenFirstIncorrectButtonIsPressed>:
}

void test_stateGoesToLockedWhenFirstIncorrectButtonIsPressed(void)	/* This test will likely pass since it just requires the SM to stay in the same Locked state */
{
   802a8:	b510      	push	{r4, lr}
	instance->state = Locked;
   802aa:	4c0d      	ldr	r4, [pc, #52]	; (802e0 <test_stateGoesToLockedWhenFirstIncorrectButtonIsPressed+0x38>)
   802ac:	6823      	ldr	r3, [r4, #0]
   802ae:	2200      	movs	r2, #0
   802b0:	701a      	strb	r2, [r3, #0]
	pushButton3(instance);
   802b2:	6820      	ldr	r0, [r4, #0]
   802b4:	4b0b      	ldr	r3, [pc, #44]	; (802e4 <test_stateGoesToLockedWhenFirstIncorrectButtonIsPressed+0x3c>)
   802b6:	4798      	blx	r3
	TEST_ASSERT_TRUE(instance->state == Locked);
   802b8:	6823      	ldr	r3, [r4, #0]
   802ba:	781b      	ldrb	r3, [r3, #0]
   802bc:	b11b      	cbz	r3, 802c6 <test_stateGoesToLockedWhenFirstIncorrectButtonIsPressed+0x1e>
   802be:	480a      	ldr	r0, [pc, #40]	; (802e8 <test_stateGoesToLockedWhenFirstIncorrectButtonIsPressed+0x40>)
   802c0:	2129      	movs	r1, #41	; 0x29
   802c2:	4b0a      	ldr	r3, [pc, #40]	; (802ec <test_stateGoesToLockedWhenFirstIncorrectButtonIsPressed+0x44>)
   802c4:	4798      	blx	r3
	releaseButton(instance);
   802c6:	4c06      	ldr	r4, [pc, #24]	; (802e0 <test_stateGoesToLockedWhenFirstIncorrectButtonIsPressed+0x38>)
   802c8:	6820      	ldr	r0, [r4, #0]
   802ca:	4b09      	ldr	r3, [pc, #36]	; (802f0 <test_stateGoesToLockedWhenFirstIncorrectButtonIsPressed+0x48>)
   802cc:	4798      	blx	r3
	TEST_ASSERT_TRUE(instance->state == Locked);
   802ce:	6823      	ldr	r3, [r4, #0]
   802d0:	781b      	ldrb	r3, [r3, #0]
   802d2:	b11b      	cbz	r3, 802dc <test_stateGoesToLockedWhenFirstIncorrectButtonIsPressed+0x34>
   802d4:	4804      	ldr	r0, [pc, #16]	; (802e8 <test_stateGoesToLockedWhenFirstIncorrectButtonIsPressed+0x40>)
   802d6:	212b      	movs	r1, #43	; 0x2b
   802d8:	4b04      	ldr	r3, [pc, #16]	; (802ec <test_stateGoesToLockedWhenFirstIncorrectButtonIsPressed+0x44>)
   802da:	4798      	blx	r3
   802dc:	bd10      	pop	{r4, pc}
   802de:	bf00      	nop
   802e0:	20070af0 	.word	0x20070af0
   802e4:	00080221 	.word	0x00080221
   802e8:	000831f4 	.word	0x000831f4
   802ec:	000815ed 	.word	0x000815ed
   802f0:	00080225 	.word	0x00080225

000802f4 <test_stateGoesToPushTwoWhenSecondCorrectButtonIsPressed>:
}

void test_stateGoesToPushTwoWhenSecondCorrectButtonIsPressed(void)
{
   802f4:	b510      	push	{r4, lr}
	instance->state = ReleaseOne;
   802f6:	4c0e      	ldr	r4, [pc, #56]	; (80330 <test_stateGoesToPushTwoWhenSecondCorrectButtonIsPressed+0x3c>)
   802f8:	6823      	ldr	r3, [r4, #0]
   802fa:	2202      	movs	r2, #2
   802fc:	701a      	strb	r2, [r3, #0]
	pushButton3(instance);
   802fe:	6820      	ldr	r0, [r4, #0]
   80300:	4b0c      	ldr	r3, [pc, #48]	; (80334 <test_stateGoesToPushTwoWhenSecondCorrectButtonIsPressed+0x40>)
   80302:	4798      	blx	r3
	TEST_ASSERT_TRUE(instance->state == PushTwo);
   80304:	6823      	ldr	r3, [r4, #0]
   80306:	781b      	ldrb	r3, [r3, #0]
   80308:	2b03      	cmp	r3, #3
   8030a:	d003      	beq.n	80314 <test_stateGoesToPushTwoWhenSecondCorrectButtonIsPressed+0x20>
   8030c:	480a      	ldr	r0, [pc, #40]	; (80338 <test_stateGoesToPushTwoWhenSecondCorrectButtonIsPressed+0x44>)
   8030e:	2132      	movs	r1, #50	; 0x32
   80310:	4b0a      	ldr	r3, [pc, #40]	; (8033c <test_stateGoesToPushTwoWhenSecondCorrectButtonIsPressed+0x48>)
   80312:	4798      	blx	r3
	releaseButton(instance);
   80314:	4c06      	ldr	r4, [pc, #24]	; (80330 <test_stateGoesToPushTwoWhenSecondCorrectButtonIsPressed+0x3c>)
   80316:	6820      	ldr	r0, [r4, #0]
   80318:	4b09      	ldr	r3, [pc, #36]	; (80340 <test_stateGoesToPushTwoWhenSecondCorrectButtonIsPressed+0x4c>)
   8031a:	4798      	blx	r3
	TEST_ASSERT_TRUE(instance->state == ReleaseTwo);
   8031c:	6823      	ldr	r3, [r4, #0]
   8031e:	781b      	ldrb	r3, [r3, #0]
   80320:	2b04      	cmp	r3, #4
   80322:	d003      	beq.n	8032c <test_stateGoesToPushTwoWhenSecondCorrectButtonIsPressed+0x38>
   80324:	4804      	ldr	r0, [pc, #16]	; (80338 <test_stateGoesToPushTwoWhenSecondCorrectButtonIsPressed+0x44>)
   80326:	2134      	movs	r1, #52	; 0x34
   80328:	4b04      	ldr	r3, [pc, #16]	; (8033c <test_stateGoesToPushTwoWhenSecondCorrectButtonIsPressed+0x48>)
   8032a:	4798      	blx	r3
   8032c:	bd10      	pop	{r4, pc}
   8032e:	bf00      	nop
   80330:	20070af0 	.word	0x20070af0
   80334:	00080221 	.word	0x00080221
   80338:	000831f4 	.word	0x000831f4
   8033c:	000815ed 	.word	0x000815ed
   80340:	00080225 	.word	0x00080225

00080344 <test_stateGoesToLockedWhenSecondIncorrectButtonIsPressed>:
}

void test_stateGoesToLockedWhenSecondIncorrectButtonIsPressed(void)
{
   80344:	b510      	push	{r4, lr}
	instance->state = ReleaseOne;
   80346:	4c0d      	ldr	r4, [pc, #52]	; (8037c <test_stateGoesToLockedWhenSecondIncorrectButtonIsPressed+0x38>)
   80348:	6823      	ldr	r3, [r4, #0]
   8034a:	2202      	movs	r2, #2
   8034c:	701a      	strb	r2, [r3, #0]
	pushButton3(instance);
   8034e:	6820      	ldr	r0, [r4, #0]
   80350:	4b0b      	ldr	r3, [pc, #44]	; (80380 <test_stateGoesToLockedWhenSecondIncorrectButtonIsPressed+0x3c>)
   80352:	4798      	blx	r3
	TEST_ASSERT_TRUE(instance->state == Locked);
   80354:	6823      	ldr	r3, [r4, #0]
   80356:	781b      	ldrb	r3, [r3, #0]
   80358:	b11b      	cbz	r3, 80362 <test_stateGoesToLockedWhenSecondIncorrectButtonIsPressed+0x1e>
   8035a:	480a      	ldr	r0, [pc, #40]	; (80384 <test_stateGoesToLockedWhenSecondIncorrectButtonIsPressed+0x40>)
   8035c:	213b      	movs	r1, #59	; 0x3b
   8035e:	4b0a      	ldr	r3, [pc, #40]	; (80388 <test_stateGoesToLockedWhenSecondIncorrectButtonIsPressed+0x44>)
   80360:	4798      	blx	r3
	releaseButton(instance);
   80362:	4c06      	ldr	r4, [pc, #24]	; (8037c <test_stateGoesToLockedWhenSecondIncorrectButtonIsPressed+0x38>)
   80364:	6820      	ldr	r0, [r4, #0]
   80366:	4b09      	ldr	r3, [pc, #36]	; (8038c <test_stateGoesToLockedWhenSecondIncorrectButtonIsPressed+0x48>)
   80368:	4798      	blx	r3
	TEST_ASSERT_TRUE(instance->state == Locked);	
   8036a:	6823      	ldr	r3, [r4, #0]
   8036c:	781b      	ldrb	r3, [r3, #0]
   8036e:	b11b      	cbz	r3, 80378 <test_stateGoesToLockedWhenSecondIncorrectButtonIsPressed+0x34>
   80370:	4804      	ldr	r0, [pc, #16]	; (80384 <test_stateGoesToLockedWhenSecondIncorrectButtonIsPressed+0x40>)
   80372:	213d      	movs	r1, #61	; 0x3d
   80374:	4b04      	ldr	r3, [pc, #16]	; (80388 <test_stateGoesToLockedWhenSecondIncorrectButtonIsPressed+0x44>)
   80376:	4798      	blx	r3
   80378:	bd10      	pop	{r4, pc}
   8037a:	bf00      	nop
   8037c:	20070af0 	.word	0x20070af0
   80380:	00080221 	.word	0x00080221
   80384:	000831f4 	.word	0x000831f4
   80388:	000815ed 	.word	0x000815ed
   8038c:	00080225 	.word	0x00080225

00080390 <test_stateGoesToPushThreeWhenThirdCorrectButtonIsPressed>:
}

void test_stateGoesToPushThreeWhenThirdCorrectButtonIsPressed(void)
{
   80390:	b510      	push	{r4, lr}
	instance->state = ReleaseTwo;
   80392:	4c0e      	ldr	r4, [pc, #56]	; (803cc <test_stateGoesToPushThreeWhenThirdCorrectButtonIsPressed+0x3c>)
   80394:	6823      	ldr	r3, [r4, #0]
   80396:	2204      	movs	r2, #4
   80398:	701a      	strb	r2, [r3, #0]
	pushButton3(instance);
   8039a:	6820      	ldr	r0, [r4, #0]
   8039c:	4b0c      	ldr	r3, [pc, #48]	; (803d0 <test_stateGoesToPushThreeWhenThirdCorrectButtonIsPressed+0x40>)
   8039e:	4798      	blx	r3
	TEST_ASSERT_TRUE(instance->state == PushThree);
   803a0:	6823      	ldr	r3, [r4, #0]
   803a2:	781b      	ldrb	r3, [r3, #0]
   803a4:	2b05      	cmp	r3, #5
   803a6:	d003      	beq.n	803b0 <test_stateGoesToPushThreeWhenThirdCorrectButtonIsPressed+0x20>
   803a8:	480a      	ldr	r0, [pc, #40]	; (803d4 <test_stateGoesToPushThreeWhenThirdCorrectButtonIsPressed+0x44>)
   803aa:	2144      	movs	r1, #68	; 0x44
   803ac:	4b0a      	ldr	r3, [pc, #40]	; (803d8 <test_stateGoesToPushThreeWhenThirdCorrectButtonIsPressed+0x48>)
   803ae:	4798      	blx	r3
	releaseButton(instance);
   803b0:	4c06      	ldr	r4, [pc, #24]	; (803cc <test_stateGoesToPushThreeWhenThirdCorrectButtonIsPressed+0x3c>)
   803b2:	6820      	ldr	r0, [r4, #0]
   803b4:	4b09      	ldr	r3, [pc, #36]	; (803dc <test_stateGoesToPushThreeWhenThirdCorrectButtonIsPressed+0x4c>)
   803b6:	4798      	blx	r3
	TEST_ASSERT_TRUE(instance->state == ReleaseThree);	
   803b8:	6823      	ldr	r3, [r4, #0]
   803ba:	781b      	ldrb	r3, [r3, #0]
   803bc:	2b06      	cmp	r3, #6
   803be:	d003      	beq.n	803c8 <test_stateGoesToPushThreeWhenThirdCorrectButtonIsPressed+0x38>
   803c0:	4804      	ldr	r0, [pc, #16]	; (803d4 <test_stateGoesToPushThreeWhenThirdCorrectButtonIsPressed+0x44>)
   803c2:	2146      	movs	r1, #70	; 0x46
   803c4:	4b04      	ldr	r3, [pc, #16]	; (803d8 <test_stateGoesToPushThreeWhenThirdCorrectButtonIsPressed+0x48>)
   803c6:	4798      	blx	r3
   803c8:	bd10      	pop	{r4, pc}
   803ca:	bf00      	nop
   803cc:	20070af0 	.word	0x20070af0
   803d0:	00080221 	.word	0x00080221
   803d4:	000831f4 	.word	0x000831f4
   803d8:	000815ed 	.word	0x000815ed
   803dc:	00080225 	.word	0x00080225

000803e0 <test_stateGoesToLockedWhenThirdIncorrectButtonIsPressed>:
}

void test_stateGoesToLockedWhenThirdIncorrectButtonIsPressed(void)
{
   803e0:	b510      	push	{r4, lr}
	instance->state = ReleaseTwo;
   803e2:	4c0d      	ldr	r4, [pc, #52]	; (80418 <test_stateGoesToLockedWhenThirdIncorrectButtonIsPressed+0x38>)
   803e4:	6823      	ldr	r3, [r4, #0]
   803e6:	2204      	movs	r2, #4
   803e8:	701a      	strb	r2, [r3, #0]
	pushButton2(instance);
   803ea:	6820      	ldr	r0, [r4, #0]
   803ec:	4b0b      	ldr	r3, [pc, #44]	; (8041c <test_stateGoesToLockedWhenThirdIncorrectButtonIsPressed+0x3c>)
   803ee:	4798      	blx	r3
	TEST_ASSERT_TRUE(instance->state == Locked);
   803f0:	6823      	ldr	r3, [r4, #0]
   803f2:	781b      	ldrb	r3, [r3, #0]
   803f4:	b11b      	cbz	r3, 803fe <test_stateGoesToLockedWhenThirdIncorrectButtonIsPressed+0x1e>
   803f6:	480a      	ldr	r0, [pc, #40]	; (80420 <test_stateGoesToLockedWhenThirdIncorrectButtonIsPressed+0x40>)
   803f8:	214d      	movs	r1, #77	; 0x4d
   803fa:	4b0a      	ldr	r3, [pc, #40]	; (80424 <test_stateGoesToLockedWhenThirdIncorrectButtonIsPressed+0x44>)
   803fc:	4798      	blx	r3
	releaseButton(instance);
   803fe:	4c06      	ldr	r4, [pc, #24]	; (80418 <test_stateGoesToLockedWhenThirdIncorrectButtonIsPressed+0x38>)
   80400:	6820      	ldr	r0, [r4, #0]
   80402:	4b09      	ldr	r3, [pc, #36]	; (80428 <test_stateGoesToLockedWhenThirdIncorrectButtonIsPressed+0x48>)
   80404:	4798      	blx	r3
	TEST_ASSERT_TRUE(instance->state == Locked);
   80406:	6823      	ldr	r3, [r4, #0]
   80408:	781b      	ldrb	r3, [r3, #0]
   8040a:	b11b      	cbz	r3, 80414 <test_stateGoesToLockedWhenThirdIncorrectButtonIsPressed+0x34>
   8040c:	4804      	ldr	r0, [pc, #16]	; (80420 <test_stateGoesToLockedWhenThirdIncorrectButtonIsPressed+0x40>)
   8040e:	214f      	movs	r1, #79	; 0x4f
   80410:	4b04      	ldr	r3, [pc, #16]	; (80424 <test_stateGoesToLockedWhenThirdIncorrectButtonIsPressed+0x44>)
   80412:	4798      	blx	r3
   80414:	bd10      	pop	{r4, pc}
   80416:	bf00      	nop
   80418:	20070af0 	.word	0x20070af0
   8041c:	0008021d 	.word	0x0008021d
   80420:	000831f4 	.word	0x000831f4
   80424:	000815ed 	.word	0x000815ed
   80428:	00080225 	.word	0x00080225

0008042c <test_stateGoesToOpenWhenFourthCorrectButtonIsPressed>:
}

void test_stateGoesToOpenWhenFourthCorrectButtonIsPressed(void)
{
   8042c:	b510      	push	{r4, lr}
	instance->state = ReleaseThree;
   8042e:	4c0e      	ldr	r4, [pc, #56]	; (80468 <test_stateGoesToOpenWhenFourthCorrectButtonIsPressed+0x3c>)
   80430:	6823      	ldr	r3, [r4, #0]
   80432:	2206      	movs	r2, #6
   80434:	701a      	strb	r2, [r3, #0]
	pushButton2(instance);
   80436:	6820      	ldr	r0, [r4, #0]
   80438:	4b0c      	ldr	r3, [pc, #48]	; (8046c <test_stateGoesToOpenWhenFourthCorrectButtonIsPressed+0x40>)
   8043a:	4798      	blx	r3
	TEST_ASSERT_TRUE(instance->state == PushFour);
   8043c:	6823      	ldr	r3, [r4, #0]
   8043e:	781b      	ldrb	r3, [r3, #0]
   80440:	2b07      	cmp	r3, #7
   80442:	d003      	beq.n	8044c <test_stateGoesToOpenWhenFourthCorrectButtonIsPressed+0x20>
   80444:	480a      	ldr	r0, [pc, #40]	; (80470 <test_stateGoesToOpenWhenFourthCorrectButtonIsPressed+0x44>)
   80446:	2156      	movs	r1, #86	; 0x56
   80448:	4b0a      	ldr	r3, [pc, #40]	; (80474 <test_stateGoesToOpenWhenFourthCorrectButtonIsPressed+0x48>)
   8044a:	4798      	blx	r3
	releaseButton(instance);
   8044c:	4c06      	ldr	r4, [pc, #24]	; (80468 <test_stateGoesToOpenWhenFourthCorrectButtonIsPressed+0x3c>)
   8044e:	6820      	ldr	r0, [r4, #0]
   80450:	4b09      	ldr	r3, [pc, #36]	; (80478 <test_stateGoesToOpenWhenFourthCorrectButtonIsPressed+0x4c>)
   80452:	4798      	blx	r3
	TEST_ASSERT_TRUE(instance->state == OPEN);
   80454:	6823      	ldr	r3, [r4, #0]
   80456:	781b      	ldrb	r3, [r3, #0]
   80458:	2b08      	cmp	r3, #8
   8045a:	d003      	beq.n	80464 <test_stateGoesToOpenWhenFourthCorrectButtonIsPressed+0x38>
   8045c:	4804      	ldr	r0, [pc, #16]	; (80470 <test_stateGoesToOpenWhenFourthCorrectButtonIsPressed+0x44>)
   8045e:	2158      	movs	r1, #88	; 0x58
   80460:	4b04      	ldr	r3, [pc, #16]	; (80474 <test_stateGoesToOpenWhenFourthCorrectButtonIsPressed+0x48>)
   80462:	4798      	blx	r3
   80464:	bd10      	pop	{r4, pc}
   80466:	bf00      	nop
   80468:	20070af0 	.word	0x20070af0
   8046c:	0008021d 	.word	0x0008021d
   80470:	000831f4 	.word	0x000831f4
   80474:	000815ed 	.word	0x000815ed
   80478:	00080225 	.word	0x00080225

0008047c <test_stateGoesToLockedWhenFourthIncorrectButtonIsPressed>:
}

void test_stateGoesToLockedWhenFourthIncorrectButtonIsPressed(void)
{
   8047c:	b510      	push	{r4, lr}
	instance->state = ReleaseTwo;
   8047e:	4c0d      	ldr	r4, [pc, #52]	; (804b4 <test_stateGoesToLockedWhenFourthIncorrectButtonIsPressed+0x38>)
   80480:	6823      	ldr	r3, [r4, #0]
   80482:	2204      	movs	r2, #4
   80484:	701a      	strb	r2, [r3, #0]
	pushButton1(instance);
   80486:	6820      	ldr	r0, [r4, #0]
   80488:	4b0b      	ldr	r3, [pc, #44]	; (804b8 <test_stateGoesToLockedWhenFourthIncorrectButtonIsPressed+0x3c>)
   8048a:	4798      	blx	r3
	TEST_ASSERT_TRUE(instance->state == Locked);
   8048c:	6823      	ldr	r3, [r4, #0]
   8048e:	781b      	ldrb	r3, [r3, #0]
   80490:	b11b      	cbz	r3, 8049a <test_stateGoesToLockedWhenFourthIncorrectButtonIsPressed+0x1e>
   80492:	480a      	ldr	r0, [pc, #40]	; (804bc <test_stateGoesToLockedWhenFourthIncorrectButtonIsPressed+0x40>)
   80494:	215f      	movs	r1, #95	; 0x5f
   80496:	4b0a      	ldr	r3, [pc, #40]	; (804c0 <test_stateGoesToLockedWhenFourthIncorrectButtonIsPressed+0x44>)
   80498:	4798      	blx	r3
	releaseButton(instance);
   8049a:	4c06      	ldr	r4, [pc, #24]	; (804b4 <test_stateGoesToLockedWhenFourthIncorrectButtonIsPressed+0x38>)
   8049c:	6820      	ldr	r0, [r4, #0]
   8049e:	4b09      	ldr	r3, [pc, #36]	; (804c4 <test_stateGoesToLockedWhenFourthIncorrectButtonIsPressed+0x48>)
   804a0:	4798      	blx	r3
	TEST_ASSERT_TRUE(instance->state == Locked);
   804a2:	6823      	ldr	r3, [r4, #0]
   804a4:	781b      	ldrb	r3, [r3, #0]
   804a6:	b11b      	cbz	r3, 804b0 <test_stateGoesToLockedWhenFourthIncorrectButtonIsPressed+0x34>
   804a8:	4804      	ldr	r0, [pc, #16]	; (804bc <test_stateGoesToLockedWhenFourthIncorrectButtonIsPressed+0x40>)
   804aa:	2161      	movs	r1, #97	; 0x61
   804ac:	4b04      	ldr	r3, [pc, #16]	; (804c0 <test_stateGoesToLockedWhenFourthIncorrectButtonIsPressed+0x44>)
   804ae:	4798      	blx	r3
   804b0:	bd10      	pop	{r4, pc}
   804b2:	bf00      	nop
   804b4:	20070af0 	.word	0x20070af0
   804b8:	00080219 	.word	0x00080219
   804bc:	000831f4 	.word	0x000831f4
   804c0:	000815ed 	.word	0x000815ed
   804c4:	00080225 	.word	0x00080225

000804c8 <_write>:
   804c8:	e92d 41f0 	stmdb	sp!, {r4, r5, r6, r7, r8, lr}
   804cc:	460e      	mov	r6, r1
   804ce:	4615      	mov	r5, r2
   804d0:	3801      	subs	r0, #1
   804d2:	2802      	cmp	r0, #2
   804d4:	d80f      	bhi.n	804f6 <_write+0x2e>
   804d6:	b192      	cbz	r2, 804fe <_write+0x36>
   804d8:	2400      	movs	r4, #0
   804da:	f8df 803c 	ldr.w	r8, [pc, #60]	; 80518 <_write+0x50>
   804de:	4f0d      	ldr	r7, [pc, #52]	; (80514 <_write+0x4c>)
   804e0:	f8d8 0000 	ldr.w	r0, [r8]
   804e4:	5d31      	ldrb	r1, [r6, r4]
   804e6:	683b      	ldr	r3, [r7, #0]
   804e8:	4798      	blx	r3
   804ea:	2800      	cmp	r0, #0
   804ec:	db0a      	blt.n	80504 <_write+0x3c>
   804ee:	3401      	adds	r4, #1
   804f0:	42a5      	cmp	r5, r4
   804f2:	d1f5      	bne.n	804e0 <_write+0x18>
   804f4:	e00a      	b.n	8050c <_write+0x44>
   804f6:	f04f 30ff 	mov.w	r0, #4294967295
   804fa:	e8bd 81f0 	ldmia.w	sp!, {r4, r5, r6, r7, r8, pc}
   804fe:	2000      	movs	r0, #0
   80500:	e8bd 81f0 	ldmia.w	sp!, {r4, r5, r6, r7, r8, pc}
   80504:	f04f 30ff 	mov.w	r0, #4294967295
   80508:	e8bd 81f0 	ldmia.w	sp!, {r4, r5, r6, r7, r8, pc}
   8050c:	4620      	mov	r0, r4
   8050e:	e8bd 81f0 	ldmia.w	sp!, {r4, r5, r6, r7, r8, pc}
   80512:	bf00      	nop
   80514:	20070af4 	.word	0x20070af4
   80518:	20070af8 	.word	0x20070af8

0008051c <usart_serial_read_packet>:
   8051c:	e92d 4ff0 	stmdb	sp!, {r4, r5, r6, r7, r8, r9, sl, fp, lr}
   80520:	b083      	sub	sp, #12
   80522:	4605      	mov	r5, r0
   80524:	4690      	mov	r8, r2
   80526:	2a00      	cmp	r2, #0
   80528:	d047      	beq.n	805ba <usart_serial_read_packet+0x9e>
   8052a:	1c4e      	adds	r6, r1, #1
   8052c:	4f25      	ldr	r7, [pc, #148]	; (805c4 <usart_serial_read_packet+0xa8>)
   8052e:	4c26      	ldr	r4, [pc, #152]	; (805c8 <usart_serial_read_packet+0xac>)
   80530:	f8df a0a8 	ldr.w	sl, [pc, #168]	; 805dc <usart_serial_read_packet+0xc0>
   80534:	f8df b094 	ldr.w	fp, [pc, #148]	; 805cc <usart_serial_read_packet+0xb0>
   80538:	f106 39ff 	add.w	r9, r6, #4294967295
   8053c:	2300      	movs	r3, #0
   8053e:	9301      	str	r3, [sp, #4]
   80540:	4b22      	ldr	r3, [pc, #136]	; (805cc <usart_serial_read_packet+0xb0>)
   80542:	429d      	cmp	r5, r3
   80544:	d106      	bne.n	80554 <usart_serial_read_packet+0x38>
   80546:	4658      	mov	r0, fp
   80548:	4649      	mov	r1, r9
   8054a:	4b21      	ldr	r3, [pc, #132]	; (805d0 <usart_serial_read_packet+0xb4>)
   8054c:	4798      	blx	r3
   8054e:	2800      	cmp	r0, #0
   80550:	d1f9      	bne.n	80546 <usart_serial_read_packet+0x2a>
   80552:	e019      	b.n	80588 <usart_serial_read_packet+0x6c>
   80554:	4b1f      	ldr	r3, [pc, #124]	; (805d4 <usart_serial_read_packet+0xb8>)
   80556:	429d      	cmp	r5, r3
   80558:	d109      	bne.n	8056e <usart_serial_read_packet+0x52>
   8055a:	4699      	mov	r9, r3
   8055c:	4648      	mov	r0, r9
   8055e:	a901      	add	r1, sp, #4
   80560:	47a0      	blx	r4
   80562:	2800      	cmp	r0, #0
   80564:	d1fa      	bne.n	8055c <usart_serial_read_packet+0x40>
   80566:	9b01      	ldr	r3, [sp, #4]
   80568:	f806 3c01 	strb.w	r3, [r6, #-1]
   8056c:	e017      	b.n	8059e <usart_serial_read_packet+0x82>
   8056e:	4b1a      	ldr	r3, [pc, #104]	; (805d8 <usart_serial_read_packet+0xbc>)
   80570:	429d      	cmp	r5, r3
   80572:	d109      	bne.n	80588 <usart_serial_read_packet+0x6c>
   80574:	4699      	mov	r9, r3
   80576:	4648      	mov	r0, r9
   80578:	a901      	add	r1, sp, #4
   8057a:	47a0      	blx	r4
   8057c:	2800      	cmp	r0, #0
   8057e:	d1fa      	bne.n	80576 <usart_serial_read_packet+0x5a>
   80580:	9b01      	ldr	r3, [sp, #4]
   80582:	f806 3c01 	strb.w	r3, [r6, #-1]
   80586:	e014      	b.n	805b2 <usart_serial_read_packet+0x96>
   80588:	4555      	cmp	r5, sl
   8058a:	d108      	bne.n	8059e <usart_serial_read_packet+0x82>
   8058c:	4650      	mov	r0, sl
   8058e:	a901      	add	r1, sp, #4
   80590:	47a0      	blx	r4
   80592:	2800      	cmp	r0, #0
   80594:	d1fa      	bne.n	8058c <usart_serial_read_packet+0x70>
   80596:	9b01      	ldr	r3, [sp, #4]
   80598:	f806 3c01 	strb.w	r3, [r6, #-1]
   8059c:	e009      	b.n	805b2 <usart_serial_read_packet+0x96>
   8059e:	42bd      	cmp	r5, r7
   805a0:	d107      	bne.n	805b2 <usart_serial_read_packet+0x96>
   805a2:	4638      	mov	r0, r7
   805a4:	a901      	add	r1, sp, #4
   805a6:	47a0      	blx	r4
   805a8:	2800      	cmp	r0, #0
   805aa:	d1fa      	bne.n	805a2 <usart_serial_read_packet+0x86>
   805ac:	9b01      	ldr	r3, [sp, #4]
   805ae:	f806 3c01 	strb.w	r3, [r6, #-1]
   805b2:	3601      	adds	r6, #1
   805b4:	f1b8 0801 	subs.w	r8, r8, #1
   805b8:	d1be      	bne.n	80538 <usart_serial_read_packet+0x1c>
   805ba:	2000      	movs	r0, #0
   805bc:	b003      	add	sp, #12
   805be:	e8bd 8ff0 	ldmia.w	sp!, {r4, r5, r6, r7, r8, r9, sl, fp, pc}
   805c2:	bf00      	nop
   805c4:	400a4000 	.word	0x400a4000
   805c8:	0008019d 	.word	0x0008019d
   805cc:	400e0800 	.word	0x400e0800
   805d0:	00080665 	.word	0x00080665
   805d4:	40098000 	.word	0x40098000
   805d8:	4009c000 	.word	0x4009c000
   805dc:	400a0000 	.word	0x400a0000

000805e0 <tc_init>:
   805e0:	b410      	push	{r4}
   805e2:	0189      	lsls	r1, r1, #6
   805e4:	1843      	adds	r3, r0, r1
   805e6:	2402      	movs	r4, #2
   805e8:	5044      	str	r4, [r0, r1]
   805ea:	f04f 31ff 	mov.w	r1, #4294967295
   805ee:	6299      	str	r1, [r3, #40]	; 0x28
   805f0:	6a19      	ldr	r1, [r3, #32]
   805f2:	605a      	str	r2, [r3, #4]
   805f4:	f85d 4b04 	ldr.w	r4, [sp], #4
   805f8:	4770      	bx	lr
   805fa:	bf00      	nop

000805fc <tc_set_block_mode>:
   805fc:	f8c0 10c4 	str.w	r1, [r0, #196]	; 0xc4
   80600:	4770      	bx	lr
   80602:	bf00      	nop

00080604 <tc_start>:
   80604:	0189      	lsls	r1, r1, #6
   80606:	2305      	movs	r3, #5
   80608:	5043      	str	r3, [r0, r1]
   8060a:	4770      	bx	lr

0008060c <tc_stop>:
   8060c:	0189      	lsls	r1, r1, #6
   8060e:	2302      	movs	r3, #2
   80610:	5043      	str	r3, [r0, r1]
   80612:	4770      	bx	lr

00080614 <tc_read_cv>:
   80614:	eb00 1181 	add.w	r1, r0, r1, lsl #6
   80618:	6908      	ldr	r0, [r1, #16]
   8061a:	4770      	bx	lr

0008061c <uart_init>:
   8061c:	b410      	push	{r4}
   8061e:	23ac      	movs	r3, #172	; 0xac
   80620:	6003      	str	r3, [r0, #0]
   80622:	680a      	ldr	r2, [r1, #0]
   80624:	684b      	ldr	r3, [r1, #4]
   80626:	fbb2 f3f3 	udiv	r3, r2, r3
   8062a:	091b      	lsrs	r3, r3, #4
   8062c:	1e5c      	subs	r4, r3, #1
   8062e:	f64f 72fe 	movw	r2, #65534	; 0xfffe
   80632:	4294      	cmp	r4, r2
   80634:	d80a      	bhi.n	8064c <uart_init+0x30>
   80636:	6203      	str	r3, [r0, #32]
   80638:	688b      	ldr	r3, [r1, #8]
   8063a:	6043      	str	r3, [r0, #4]
   8063c:	f240 2302 	movw	r3, #514	; 0x202
   80640:	f8c0 3120 	str.w	r3, [r0, #288]	; 0x120
   80644:	2350      	movs	r3, #80	; 0x50
   80646:	6003      	str	r3, [r0, #0]
   80648:	2000      	movs	r0, #0
   8064a:	e000      	b.n	8064e <uart_init+0x32>
   8064c:	2001      	movs	r0, #1
   8064e:	f85d 4b04 	ldr.w	r4, [sp], #4
   80652:	4770      	bx	lr

00080654 <uart_write>:
   80654:	6943      	ldr	r3, [r0, #20]
   80656:	f013 0f02 	tst.w	r3, #2
   8065a:	bf1a      	itte	ne
   8065c:	61c1      	strne	r1, [r0, #28]
   8065e:	2000      	movne	r0, #0
   80660:	2001      	moveq	r0, #1
   80662:	4770      	bx	lr

00080664 <uart_read>:
   80664:	6943      	ldr	r3, [r0, #20]
   80666:	f013 0f01 	tst.w	r3, #1
   8066a:	bf1d      	ittte	ne
   8066c:	6983      	ldrne	r3, [r0, #24]
   8066e:	700b      	strbne	r3, [r1, #0]
   80670:	2000      	movne	r0, #0
   80672:	2001      	moveq	r0, #1
   80674:	4770      	bx	lr
   80676:	bf00      	nop

00080678 <usart_serial_getchar>:
   80678:	b5f0      	push	{r4, r5, r6, r7, lr}
   8067a:	b083      	sub	sp, #12
   8067c:	4604      	mov	r4, r0
   8067e:	460d      	mov	r5, r1
   80680:	2300      	movs	r3, #0
   80682:	9301      	str	r3, [sp, #4]
   80684:	4b1f      	ldr	r3, [pc, #124]	; (80704 <usart_serial_getchar+0x8c>)
   80686:	4298      	cmp	r0, r3
   80688:	d107      	bne.n	8069a <usart_serial_getchar+0x22>
   8068a:	461f      	mov	r7, r3
   8068c:	4e1e      	ldr	r6, [pc, #120]	; (80708 <usart_serial_getchar+0x90>)
   8068e:	4638      	mov	r0, r7
   80690:	4629      	mov	r1, r5
   80692:	47b0      	blx	r6
   80694:	2800      	cmp	r0, #0
   80696:	d1fa      	bne.n	8068e <usart_serial_getchar+0x16>
   80698:	e019      	b.n	806ce <usart_serial_getchar+0x56>
   8069a:	4b1c      	ldr	r3, [pc, #112]	; (8070c <usart_serial_getchar+0x94>)
   8069c:	4298      	cmp	r0, r3
   8069e:	d109      	bne.n	806b4 <usart_serial_getchar+0x3c>
   806a0:	461f      	mov	r7, r3
   806a2:	4e1b      	ldr	r6, [pc, #108]	; (80710 <usart_serial_getchar+0x98>)
   806a4:	4638      	mov	r0, r7
   806a6:	a901      	add	r1, sp, #4
   806a8:	47b0      	blx	r6
   806aa:	2800      	cmp	r0, #0
   806ac:	d1fa      	bne.n	806a4 <usart_serial_getchar+0x2c>
   806ae:	9b01      	ldr	r3, [sp, #4]
   806b0:	702b      	strb	r3, [r5, #0]
   806b2:	e019      	b.n	806e8 <usart_serial_getchar+0x70>
   806b4:	4b17      	ldr	r3, [pc, #92]	; (80714 <usart_serial_getchar+0x9c>)
   806b6:	4298      	cmp	r0, r3
   806b8:	d109      	bne.n	806ce <usart_serial_getchar+0x56>
   806ba:	461e      	mov	r6, r3
   806bc:	4c14      	ldr	r4, [pc, #80]	; (80710 <usart_serial_getchar+0x98>)
   806be:	4630      	mov	r0, r6
   806c0:	a901      	add	r1, sp, #4
   806c2:	47a0      	blx	r4
   806c4:	2800      	cmp	r0, #0
   806c6:	d1fa      	bne.n	806be <usart_serial_getchar+0x46>
   806c8:	9b01      	ldr	r3, [sp, #4]
   806ca:	702b      	strb	r3, [r5, #0]
   806cc:	e018      	b.n	80700 <usart_serial_getchar+0x88>
   806ce:	4b12      	ldr	r3, [pc, #72]	; (80718 <usart_serial_getchar+0xa0>)
   806d0:	429c      	cmp	r4, r3
   806d2:	d109      	bne.n	806e8 <usart_serial_getchar+0x70>
   806d4:	461e      	mov	r6, r3
   806d6:	4c0e      	ldr	r4, [pc, #56]	; (80710 <usart_serial_getchar+0x98>)
   806d8:	4630      	mov	r0, r6
   806da:	a901      	add	r1, sp, #4
   806dc:	47a0      	blx	r4
   806de:	2800      	cmp	r0, #0
   806e0:	d1fa      	bne.n	806d8 <usart_serial_getchar+0x60>
   806e2:	9b01      	ldr	r3, [sp, #4]
   806e4:	702b      	strb	r3, [r5, #0]
   806e6:	e00b      	b.n	80700 <usart_serial_getchar+0x88>
   806e8:	4b0c      	ldr	r3, [pc, #48]	; (8071c <usart_serial_getchar+0xa4>)
   806ea:	429c      	cmp	r4, r3
   806ec:	d108      	bne.n	80700 <usart_serial_getchar+0x88>
   806ee:	461e      	mov	r6, r3
   806f0:	4c07      	ldr	r4, [pc, #28]	; (80710 <usart_serial_getchar+0x98>)
   806f2:	4630      	mov	r0, r6
   806f4:	a901      	add	r1, sp, #4
   806f6:	47a0      	blx	r4
   806f8:	2800      	cmp	r0, #0
   806fa:	d1fa      	bne.n	806f2 <usart_serial_getchar+0x7a>
   806fc:	9b01      	ldr	r3, [sp, #4]
   806fe:	702b      	strb	r3, [r5, #0]
   80700:	b003      	add	sp, #12
   80702:	bdf0      	pop	{r4, r5, r6, r7, pc}
   80704:	400e0800 	.word	0x400e0800
   80708:	00080665 	.word	0x00080665
   8070c:	40098000 	.word	0x40098000
   80710:	0008019d 	.word	0x0008019d
   80714:	4009c000 	.word	0x4009c000
   80718:	400a0000 	.word	0x400a0000
   8071c:	400a4000 	.word	0x400a4000

00080720 <usart_serial_putchar>:
   80720:	b570      	push	{r4, r5, r6, lr}
   80722:	460c      	mov	r4, r1
   80724:	4b21      	ldr	r3, [pc, #132]	; (807ac <usart_serial_putchar+0x8c>)
   80726:	4298      	cmp	r0, r3
   80728:	d107      	bne.n	8073a <usart_serial_putchar+0x1a>
   8072a:	461e      	mov	r6, r3
   8072c:	4d20      	ldr	r5, [pc, #128]	; (807b0 <usart_serial_putchar+0x90>)
   8072e:	4630      	mov	r0, r6
   80730:	4621      	mov	r1, r4
   80732:	47a8      	blx	r5
   80734:	2800      	cmp	r0, #0
   80736:	d1fa      	bne.n	8072e <usart_serial_putchar+0xe>
   80738:	e02b      	b.n	80792 <usart_serial_putchar+0x72>
   8073a:	4b1e      	ldr	r3, [pc, #120]	; (807b4 <usart_serial_putchar+0x94>)
   8073c:	4298      	cmp	r0, r3
   8073e:	d107      	bne.n	80750 <usart_serial_putchar+0x30>
   80740:	461e      	mov	r6, r3
   80742:	4d1d      	ldr	r5, [pc, #116]	; (807b8 <usart_serial_putchar+0x98>)
   80744:	4630      	mov	r0, r6
   80746:	4621      	mov	r1, r4
   80748:	47a8      	blx	r5
   8074a:	2800      	cmp	r0, #0
   8074c:	d1fa      	bne.n	80744 <usart_serial_putchar+0x24>
   8074e:	e022      	b.n	80796 <usart_serial_putchar+0x76>
   80750:	4b1a      	ldr	r3, [pc, #104]	; (807bc <usart_serial_putchar+0x9c>)
   80752:	4298      	cmp	r0, r3
   80754:	d107      	bne.n	80766 <usart_serial_putchar+0x46>
   80756:	461e      	mov	r6, r3
   80758:	4d17      	ldr	r5, [pc, #92]	; (807b8 <usart_serial_putchar+0x98>)
   8075a:	4630      	mov	r0, r6
   8075c:	4621      	mov	r1, r4
   8075e:	47a8      	blx	r5
   80760:	2800      	cmp	r0, #0
   80762:	d1fa      	bne.n	8075a <usart_serial_putchar+0x3a>
   80764:	e019      	b.n	8079a <usart_serial_putchar+0x7a>
   80766:	4b16      	ldr	r3, [pc, #88]	; (807c0 <usart_serial_putchar+0xa0>)
   80768:	4298      	cmp	r0, r3
   8076a:	d107      	bne.n	8077c <usart_serial_putchar+0x5c>
   8076c:	461e      	mov	r6, r3
   8076e:	4d12      	ldr	r5, [pc, #72]	; (807b8 <usart_serial_putchar+0x98>)
   80770:	4630      	mov	r0, r6
   80772:	4621      	mov	r1, r4
   80774:	47a8      	blx	r5
   80776:	2800      	cmp	r0, #0
   80778:	d1fa      	bne.n	80770 <usart_serial_putchar+0x50>
   8077a:	e010      	b.n	8079e <usart_serial_putchar+0x7e>
   8077c:	4b11      	ldr	r3, [pc, #68]	; (807c4 <usart_serial_putchar+0xa4>)
   8077e:	4298      	cmp	r0, r3
   80780:	d10f      	bne.n	807a2 <usart_serial_putchar+0x82>
   80782:	461e      	mov	r6, r3
   80784:	4d0c      	ldr	r5, [pc, #48]	; (807b8 <usart_serial_putchar+0x98>)
   80786:	4630      	mov	r0, r6
   80788:	4621      	mov	r1, r4
   8078a:	47a8      	blx	r5
   8078c:	2800      	cmp	r0, #0
   8078e:	d1fa      	bne.n	80786 <usart_serial_putchar+0x66>
   80790:	e009      	b.n	807a6 <usart_serial_putchar+0x86>
   80792:	2001      	movs	r0, #1
   80794:	bd70      	pop	{r4, r5, r6, pc}
   80796:	2001      	movs	r0, #1
   80798:	bd70      	pop	{r4, r5, r6, pc}
   8079a:	2001      	movs	r0, #1
   8079c:	bd70      	pop	{r4, r5, r6, pc}
   8079e:	2001      	movs	r0, #1
   807a0:	bd70      	pop	{r4, r5, r6, pc}
   807a2:	2000      	movs	r0, #0
   807a4:	bd70      	pop	{r4, r5, r6, pc}
   807a6:	2001      	movs	r0, #1
   807a8:	bd70      	pop	{r4, r5, r6, pc}
   807aa:	bf00      	nop
   807ac:	400e0800 	.word	0x400e0800
   807b0:	00080655 	.word	0x00080655
   807b4:	40098000 	.word	0x40098000
   807b8:	00080189 	.word	0x00080189
   807bc:	4009c000 	.word	0x4009c000
   807c0:	400a0000 	.word	0x400a0000
   807c4:	400a4000 	.word	0x400a4000

000807c8 <configureConsole>:
   807c8:	b530      	push	{r4, r5, lr}
   807ca:	b085      	sub	sp, #20
   807cc:	2008      	movs	r0, #8
   807ce:	4d13      	ldr	r5, [pc, #76]	; (8081c <configureConsole+0x54>)
   807d0:	47a8      	blx	r5
   807d2:	4c13      	ldr	r4, [pc, #76]	; (80820 <configureConsole+0x58>)
   807d4:	4b13      	ldr	r3, [pc, #76]	; (80824 <configureConsole+0x5c>)
   807d6:	601c      	str	r4, [r3, #0]
   807d8:	4a13      	ldr	r2, [pc, #76]	; (80828 <configureConsole+0x60>)
   807da:	4b14      	ldr	r3, [pc, #80]	; (8082c <configureConsole+0x64>)
   807dc:	601a      	str	r2, [r3, #0]
   807de:	4a14      	ldr	r2, [pc, #80]	; (80830 <configureConsole+0x68>)
   807e0:	4b14      	ldr	r3, [pc, #80]	; (80834 <configureConsole+0x6c>)
   807e2:	601a      	str	r2, [r3, #0]
   807e4:	4b14      	ldr	r3, [pc, #80]	; (80838 <configureConsole+0x70>)
   807e6:	9301      	str	r3, [sp, #4]
   807e8:	f44f 33e1 	mov.w	r3, #115200	; 0x1c200
   807ec:	9302      	str	r3, [sp, #8]
   807ee:	f44f 6300 	mov.w	r3, #2048	; 0x800
   807f2:	9303      	str	r3, [sp, #12]
   807f4:	2008      	movs	r0, #8
   807f6:	47a8      	blx	r5
   807f8:	4620      	mov	r0, r4
   807fa:	a901      	add	r1, sp, #4
   807fc:	4b0f      	ldr	r3, [pc, #60]	; (8083c <configureConsole+0x74>)
   807fe:	4798      	blx	r3
   80800:	4d0f      	ldr	r5, [pc, #60]	; (80840 <configureConsole+0x78>)
   80802:	682b      	ldr	r3, [r5, #0]
   80804:	6898      	ldr	r0, [r3, #8]
   80806:	2100      	movs	r1, #0
   80808:	4c0e      	ldr	r4, [pc, #56]	; (80844 <configureConsole+0x7c>)
   8080a:	47a0      	blx	r4
   8080c:	682b      	ldr	r3, [r5, #0]
   8080e:	6858      	ldr	r0, [r3, #4]
   80810:	2100      	movs	r1, #0
   80812:	47a0      	blx	r4
   80814:	2000      	movs	r0, #0
   80816:	b005      	add	sp, #20
   80818:	bd30      	pop	{r4, r5, pc}
   8081a:	bf00      	nop
   8081c:	00081dc1 	.word	0x00081dc1
   80820:	400e0800 	.word	0x400e0800
   80824:	20070af8 	.word	0x20070af8
   80828:	00080721 	.word	0x00080721
   8082c:	20070af4 	.word	0x20070af4
   80830:	00080679 	.word	0x00080679
   80834:	20070ad8 	.word	0x20070ad8
   80838:	0501bd00 	.word	0x0501bd00
   8083c:	0008061d 	.word	0x0008061d
   80840:	20070560 	.word	0x20070560
   80844:	0008211d 	.word	0x0008211d

00080848 <delayInit>:
   80848:	b510      	push	{r4, lr}
   8084a:	201b      	movs	r0, #27
   8084c:	4b08      	ldr	r3, [pc, #32]	; (80870 <delayInit+0x28>)
   8084e:	4798      	blx	r3
   80850:	4c08      	ldr	r4, [pc, #32]	; (80874 <delayInit+0x2c>)
   80852:	4620      	mov	r0, r4
   80854:	2100      	movs	r1, #0
   80856:	460a      	mov	r2, r1
   80858:	4b07      	ldr	r3, [pc, #28]	; (80878 <delayInit+0x30>)
   8085a:	4798      	blx	r3
   8085c:	4620      	mov	r0, r4
   8085e:	2100      	movs	r1, #0
   80860:	4b06      	ldr	r3, [pc, #24]	; (8087c <delayInit+0x34>)
   80862:	4798      	blx	r3
   80864:	4620      	mov	r0, r4
   80866:	2100      	movs	r1, #0
   80868:	4b05      	ldr	r3, [pc, #20]	; (80880 <delayInit+0x38>)
   8086a:	4798      	blx	r3
   8086c:	2000      	movs	r0, #0
   8086e:	bd10      	pop	{r4, pc}
   80870:	00081dc1 	.word	0x00081dc1
   80874:	40080000 	.word	0x40080000
   80878:	000805e1 	.word	0x000805e1
   8087c:	000805fd 	.word	0x000805fd
   80880:	0008060d 	.word	0x0008060d

00080884 <delayMicroseconds>:
   80884:	b5f8      	push	{r3, r4, r5, r6, r7, lr}
   80886:	4604      	mov	r4, r0
   80888:	4809      	ldr	r0, [pc, #36]	; (808b0 <delayMicroseconds+0x2c>)
   8088a:	2100      	movs	r1, #0
   8088c:	4b09      	ldr	r3, [pc, #36]	; (808b4 <delayMicroseconds+0x30>)
   8088e:	4798      	blx	r3
   80890:	272a      	movs	r7, #42	; 0x2a
   80892:	fb07 f704 	mul.w	r7, r7, r4
   80896:	4e06      	ldr	r6, [pc, #24]	; (808b0 <delayMicroseconds+0x2c>)
   80898:	2500      	movs	r5, #0
   8089a:	4c07      	ldr	r4, [pc, #28]	; (808b8 <delayMicroseconds+0x34>)
   8089c:	4630      	mov	r0, r6
   8089e:	4629      	mov	r1, r5
   808a0:	47a0      	blx	r4
   808a2:	42b8      	cmp	r0, r7
   808a4:	d3fa      	bcc.n	8089c <delayMicroseconds+0x18>
   808a6:	4802      	ldr	r0, [pc, #8]	; (808b0 <delayMicroseconds+0x2c>)
   808a8:	2100      	movs	r1, #0
   808aa:	4b04      	ldr	r3, [pc, #16]	; (808bc <delayMicroseconds+0x38>)
   808ac:	4798      	blx	r3
   808ae:	bdf8      	pop	{r3, r4, r5, r6, r7, pc}
   808b0:	40080000 	.word	0x40080000
   808b4:	00080605 	.word	0x00080605
   808b8:	00080615 	.word	0x00080615
   808bc:	0008060d 	.word	0x0008060d

000808c0 <main>:

extern codeLockType SM;				/* The memory area for the state machine */
extern codeLockPtrType instance;	/* A pointer to a state machine of this type */

int main (void)
{
   808c0:	b570      	push	{r4, r5, r6, lr}
	sysclk_init();	/* Insert system clock initialization code here (sysclk_init()). */
   808c2:	4b20      	ldr	r3, [pc, #128]	; (80944 <main+0x84>)
   808c4:	4798      	blx	r3
	board_init();
   808c6:	4b20      	ldr	r3, [pc, #128]	; (80948 <main+0x88>)
   808c8:	4798      	blx	r3

	configureConsole();	/* Initialize the console UART used from within Atmel Studio*/
   808ca:	4b20      	ldr	r3, [pc, #128]	; (8094c <main+0x8c>)
   808cc:	4798      	blx	r3
		
	/* From here on the program uses the Unity testing framework */
		
	UnityBegin("../test/test_delayFunctions.c");	/* Run the tests for the delay from the test-file */
   808ce:	4820      	ldr	r0, [pc, #128]	; (80950 <main+0x90>)
   808d0:	4e20      	ldr	r6, [pc, #128]	; (80954 <main+0x94>)
   808d2:	47b0      	blx	r6
	RUN_TEST(test_delayTimerIsInitialisedProperly, 5);
   808d4:	4820      	ldr	r0, [pc, #128]	; (80958 <main+0x98>)
   808d6:	4921      	ldr	r1, [pc, #132]	; (8095c <main+0x9c>)
   808d8:	2205      	movs	r2, #5
   808da:	4c21      	ldr	r4, [pc, #132]	; (80960 <main+0xa0>)
   808dc:	47a0      	blx	r4
	RUN_TEST(test_delayCountsProperly, 8);
   808de:	4821      	ldr	r0, [pc, #132]	; (80964 <main+0xa4>)
   808e0:	4921      	ldr	r1, [pc, #132]	; (80968 <main+0xa8>)
   808e2:	2208      	movs	r2, #8
   808e4:	47a0      	blx	r4
	UnityEnd();
   808e6:	4d21      	ldr	r5, [pc, #132]	; (8096c <main+0xac>)
   808e8:	47a8      	blx	r5
	
	instance = &SM;				/* Pointing to the state machine used */
   808ea:	4a21      	ldr	r2, [pc, #132]	; (80970 <main+0xb0>)
   808ec:	4b21      	ldr	r3, [pc, #132]	; (80974 <main+0xb4>)
   808ee:	601a      	str	r2, [r3, #0]
	
	UnityBegin("../test/test_stateMachine.c");	/* Run the tests for the delay from the test-file */
   808f0:	4821      	ldr	r0, [pc, #132]	; (80978 <main+0xb8>)
   808f2:	47b0      	blx	r6
	RUN_TEST(test_stateMachineStartsInLockedState, 10);
   808f4:	4821      	ldr	r0, [pc, #132]	; (8097c <main+0xbc>)
   808f6:	4922      	ldr	r1, [pc, #136]	; (80980 <main+0xc0>)
   808f8:	220a      	movs	r2, #10
   808fa:	47a0      	blx	r4

	RUN_TEST(test_stateGoesToPushOneWhenFirstCorrectButtonIsPressed, 20);
   808fc:	4821      	ldr	r0, [pc, #132]	; (80984 <main+0xc4>)
   808fe:	4922      	ldr	r1, [pc, #136]	; (80988 <main+0xc8>)
   80900:	2214      	movs	r2, #20
   80902:	47a0      	blx	r4
	RUN_TEST(test_stateGoesToLockedWhenFirstIncorrectButtonIsPressed, 22);
   80904:	4821      	ldr	r0, [pc, #132]	; (8098c <main+0xcc>)
   80906:	4922      	ldr	r1, [pc, #136]	; (80990 <main+0xd0>)
   80908:	2216      	movs	r2, #22
   8090a:	47a0      	blx	r4

	RUN_TEST(test_stateGoesToPushTwoWhenSecondCorrectButtonIsPressed, 30);
   8090c:	4821      	ldr	r0, [pc, #132]	; (80994 <main+0xd4>)
   8090e:	4922      	ldr	r1, [pc, #136]	; (80998 <main+0xd8>)
   80910:	221e      	movs	r2, #30
   80912:	47a0      	blx	r4
	RUN_TEST(test_stateGoesToLockedWhenSecondIncorrectButtonIsPressed, 32);
   80914:	4821      	ldr	r0, [pc, #132]	; (8099c <main+0xdc>)
   80916:	4922      	ldr	r1, [pc, #136]	; (809a0 <main+0xe0>)
   80918:	2220      	movs	r2, #32
   8091a:	47a0      	blx	r4

	RUN_TEST(test_stateGoesToPushThreeWhenThirdCorrectButtonIsPressed, 40);
   8091c:	4821      	ldr	r0, [pc, #132]	; (809a4 <main+0xe4>)
   8091e:	4922      	ldr	r1, [pc, #136]	; (809a8 <main+0xe8>)
   80920:	2228      	movs	r2, #40	; 0x28
   80922:	47a0      	blx	r4
	RUN_TEST(test_stateGoesToLockedWhenThirdIncorrectButtonIsPressed, 42);
   80924:	4821      	ldr	r0, [pc, #132]	; (809ac <main+0xec>)
   80926:	4922      	ldr	r1, [pc, #136]	; (809b0 <main+0xf0>)
   80928:	222a      	movs	r2, #42	; 0x2a
   8092a:	47a0      	blx	r4

	RUN_TEST(test_stateGoesToOpenWhenFourthCorrectButtonIsPressed, 50);
   8092c:	4821      	ldr	r0, [pc, #132]	; (809b4 <main+0xf4>)
   8092e:	4922      	ldr	r1, [pc, #136]	; (809b8 <main+0xf8>)
   80930:	2232      	movs	r2, #50	; 0x32
   80932:	47a0      	blx	r4
	RUN_TEST(test_stateGoesToLockedWhenFourthIncorrectButtonIsPressed, 52);
   80934:	4821      	ldr	r0, [pc, #132]	; (809bc <main+0xfc>)
   80936:	4922      	ldr	r1, [pc, #136]	; (809c0 <main+0x100>)
   80938:	2234      	movs	r2, #52	; 0x34
   8093a:	47a0      	blx	r4
	UnityEnd();
   8093c:	47a8      	blx	r5
		
	return 0;
}
   8093e:	2000      	movs	r0, #0
   80940:	bd70      	pop	{r4, r5, r6, pc}
   80942:	bf00      	nop
   80944:	00081935 	.word	0x00081935
   80948:	00081999 	.word	0x00081999
   8094c:	000807c9 	.word	0x000807c9
   80950:	00083210 	.word	0x00083210
   80954:	00081751 	.word	0x00081751
   80958:	000809cd 	.word	0x000809cd
   8095c:	00083230 	.word	0x00083230
   80960:	000816f9 	.word	0x000816f9
   80964:	000809f9 	.word	0x000809f9
   80968:	00083258 	.word	0x00083258
   8096c:	0008176d 	.word	0x0008176d
   80970:	20070adc 	.word	0x20070adc
   80974:	20070af0 	.word	0x20070af0
   80978:	00083274 	.word	0x00083274
   8097c:	00080229 	.word	0x00080229
   80980:	00083290 	.word	0x00083290
   80984:	00080259 	.word	0x00080259
   80988:	000832b8 	.word	0x000832b8
   8098c:	000802a9 	.word	0x000802a9
   80990:	000832f0 	.word	0x000832f0
   80994:	000802f5 	.word	0x000802f5
   80998:	00083328 	.word	0x00083328
   8099c:	00080345 	.word	0x00080345
   809a0:	00083360 	.word	0x00083360
   809a4:	00080391 	.word	0x00080391
   809a8:	0008339c 	.word	0x0008339c
   809ac:	000803e1 	.word	0x000803e1
   809b0:	000833d8 	.word	0x000833d8
   809b4:	0008042d 	.word	0x0008042d
   809b8:	00083410 	.word	0x00083410
   809bc:	0008047d 	.word	0x0008047d
   809c0:	00083448 	.word	0x00083448

000809c4 <setUp>:

void setUp(void)
{
   809c4:	4770      	bx	lr
   809c6:	bf00      	nop

000809c8 <tearDown>:
	/* Do nothing */
}

void tearDown(void)
{
   809c8:	4770      	bx	lr
   809ca:	bf00      	nop

000809cc <test_delayTimerIsInitialisedProperly>:
   809cc:	b510      	push	{r4, lr}
   809ce:	b082      	sub	sp, #8
   809d0:	4b06      	ldr	r3, [pc, #24]	; (809ec <test_delayTimerIsInitialisedProperly+0x20>)
   809d2:	4798      	blx	r3
   809d4:	4b06      	ldr	r3, [pc, #24]	; (809f0 <test_delayTimerIsInitialisedProperly+0x24>)
   809d6:	681a      	ldr	r2, [r3, #0]
   809d8:	2318      	movs	r3, #24
   809da:	9300      	str	r3, [sp, #0]
   809dc:	f240 1011 	movw	r0, #273	; 0x111
   809e0:	2100      	movs	r1, #0
   809e2:	460b      	mov	r3, r1
   809e4:	4c03      	ldr	r4, [pc, #12]	; (809f4 <test_delayTimerIsInitialisedProperly+0x28>)
   809e6:	47a0      	blx	r4
   809e8:	b002      	add	sp, #8
   809ea:	bd10      	pop	{r4, pc}
   809ec:	00080849 	.word	0x00080849
   809f0:	40080004 	.word	0x40080004
   809f4:	000814a9 	.word	0x000814a9

000809f8 <test_delayCountsProperly>:
   809f8:	e92d 43f0 	stmdb	sp!, {r4, r5, r6, r7, r8, r9, lr}
   809fc:	b083      	sub	sp, #12
   809fe:	4b19      	ldr	r3, [pc, #100]	; (80a64 <test_delayCountsProperly+0x6c>)
   80a00:	4798      	blx	r3
   80a02:	2001      	movs	r0, #1
   80a04:	f8df 906c 	ldr.w	r9, [pc, #108]	; 80a74 <test_delayCountsProperly+0x7c>
   80a08:	47c8      	blx	r9
   80a0a:	f8df 806c 	ldr.w	r8, [pc, #108]	; 80a78 <test_delayCountsProperly+0x80>
   80a0e:	f8d8 2000 	ldr.w	r2, [r8]
   80a12:	2323      	movs	r3, #35	; 0x23
   80a14:	9300      	str	r3, [sp, #0]
   80a16:	f44f 3080 	mov.w	r0, #65536	; 0x10000
   80a1a:	2100      	movs	r1, #0
   80a1c:	460b      	mov	r3, r1
   80a1e:	4f12      	ldr	r7, [pc, #72]	; (80a68 <test_delayCountsProperly+0x70>)
   80a20:	47b8      	blx	r7
   80a22:	4e12      	ldr	r6, [pc, #72]	; (80a6c <test_delayCountsProperly+0x74>)
   80a24:	6832      	ldr	r2, [r6, #0]
   80a26:	2424      	movs	r4, #36	; 0x24
   80a28:	9400      	str	r4, [sp, #0]
   80a2a:	9401      	str	r4, [sp, #4]
   80a2c:	2028      	movs	r0, #40	; 0x28
   80a2e:	212a      	movs	r1, #42	; 0x2a
   80a30:	2300      	movs	r3, #0
   80a32:	4d0f      	ldr	r5, [pc, #60]	; (80a70 <test_delayCountsProperly+0x78>)
   80a34:	47a8      	blx	r5
   80a36:	20c8      	movs	r0, #200	; 0xc8
   80a38:	47c8      	blx	r9
   80a3a:	f8d8 2000 	ldr.w	r2, [r8]
   80a3e:	2327      	movs	r3, #39	; 0x27
   80a40:	9300      	str	r3, [sp, #0]
   80a42:	f44f 3080 	mov.w	r0, #65536	; 0x10000
   80a46:	2100      	movs	r1, #0
   80a48:	460b      	mov	r3, r1
   80a4a:	47b8      	blx	r7
   80a4c:	6832      	ldr	r2, [r6, #0]
   80a4e:	2028      	movs	r0, #40	; 0x28
   80a50:	9000      	str	r0, [sp, #0]
   80a52:	9401      	str	r4, [sp, #4]
   80a54:	f242 01e4 	movw	r1, #8420	; 0x20e4
   80a58:	2300      	movs	r3, #0
   80a5a:	47a8      	blx	r5
   80a5c:	b003      	add	sp, #12
   80a5e:	e8bd 83f0 	ldmia.w	sp!, {r4, r5, r6, r7, r8, r9, pc}
   80a62:	bf00      	nop
   80a64:	00080849 	.word	0x00080849
   80a68:	000814a9 	.word	0x000814a9
   80a6c:	40080010 	.word	0x40080010
   80a70:	00081521 	.word	0x00081521
   80a74:	00080885 	.word	0x00080885
   80a78:	40080020 	.word	0x40080020

00080a7c <UnityPrintNumber>:
   80a7c:	e92d 41f0 	stmdb	sp!, {r4, r5, r6, r7, r8, lr}
   80a80:	4605      	mov	r5, r0
   80a82:	f1b0 4f00 	cmp.w	r0, #2147483648	; 0x80000000
   80a86:	d132      	bne.n	80aee <UnityPrintNumber+0x72>
   80a88:	4b5f      	ldr	r3, [pc, #380]	; (80c08 <UnityPrintNumber+0x18c>)
   80a8a:	6818      	ldr	r0, [r3, #0]
   80a8c:	6882      	ldr	r2, [r0, #8]
   80a8e:	6893      	ldr	r3, [r2, #8]
   80a90:	3b01      	subs	r3, #1
   80a92:	6093      	str	r3, [r2, #8]
   80a94:	2b00      	cmp	r3, #0
   80a96:	da1d      	bge.n	80ad4 <UnityPrintNumber+0x58>
   80a98:	6882      	ldr	r2, [r0, #8]
   80a9a:	6891      	ldr	r1, [r2, #8]
   80a9c:	6993      	ldr	r3, [r2, #24]
   80a9e:	4299      	cmp	r1, r3
   80aa0:	db12      	blt.n	80ac8 <UnityPrintNumber+0x4c>
   80aa2:	6813      	ldr	r3, [r2, #0]
   80aa4:	222d      	movs	r2, #45	; 0x2d
   80aa6:	701a      	strb	r2, [r3, #0]
   80aa8:	4b57      	ldr	r3, [pc, #348]	; (80c08 <UnityPrintNumber+0x18c>)
   80aaa:	6818      	ldr	r0, [r3, #0]
   80aac:	6882      	ldr	r2, [r0, #8]
   80aae:	6813      	ldr	r3, [r2, #0]
   80ab0:	7819      	ldrb	r1, [r3, #0]
   80ab2:	290a      	cmp	r1, #10
   80ab4:	d002      	beq.n	80abc <UnityPrintNumber+0x40>
   80ab6:	3301      	adds	r3, #1
   80ab8:	6013      	str	r3, [r2, #0]
   80aba:	e04f      	b.n	80b5c <UnityPrintNumber+0xe0>
   80abc:	210a      	movs	r1, #10
   80abe:	4b53      	ldr	r3, [pc, #332]	; (80c0c <UnityPrintNumber+0x190>)
   80ac0:	4798      	blx	r3
   80ac2:	f04f 4500 	mov.w	r5, #2147483648	; 0x80000000
   80ac6:	e049      	b.n	80b5c <UnityPrintNumber+0xe0>
   80ac8:	212d      	movs	r1, #45	; 0x2d
   80aca:	4b50      	ldr	r3, [pc, #320]	; (80c0c <UnityPrintNumber+0x190>)
   80acc:	4798      	blx	r3
   80ace:	f04f 4500 	mov.w	r5, #2147483648	; 0x80000000
   80ad2:	e043      	b.n	80b5c <UnityPrintNumber+0xe0>
   80ad4:	6883      	ldr	r3, [r0, #8]
   80ad6:	681b      	ldr	r3, [r3, #0]
   80ad8:	222d      	movs	r2, #45	; 0x2d
   80ada:	701a      	strb	r2, [r3, #0]
   80adc:	4b4a      	ldr	r3, [pc, #296]	; (80c08 <UnityPrintNumber+0x18c>)
   80ade:	681b      	ldr	r3, [r3, #0]
   80ae0:	689b      	ldr	r3, [r3, #8]
   80ae2:	681a      	ldr	r2, [r3, #0]
   80ae4:	3201      	adds	r2, #1
   80ae6:	601a      	str	r2, [r3, #0]
   80ae8:	f04f 4500 	mov.w	r5, #2147483648	; 0x80000000
   80aec:	e036      	b.n	80b5c <UnityPrintNumber+0xe0>
   80aee:	2800      	cmp	r0, #0
   80af0:	da34      	bge.n	80b5c <UnityPrintNumber+0xe0>
   80af2:	4b45      	ldr	r3, [pc, #276]	; (80c08 <UnityPrintNumber+0x18c>)
   80af4:	6818      	ldr	r0, [r3, #0]
   80af6:	6882      	ldr	r2, [r0, #8]
   80af8:	6893      	ldr	r3, [r2, #8]
   80afa:	3b01      	subs	r3, #1
   80afc:	6093      	str	r3, [r2, #8]
   80afe:	2b00      	cmp	r3, #0
   80b00:	da19      	bge.n	80b36 <UnityPrintNumber+0xba>
   80b02:	6882      	ldr	r2, [r0, #8]
   80b04:	6891      	ldr	r1, [r2, #8]
   80b06:	6993      	ldr	r3, [r2, #24]
   80b08:	4299      	cmp	r1, r3
   80b0a:	db10      	blt.n	80b2e <UnityPrintNumber+0xb2>
   80b0c:	6813      	ldr	r3, [r2, #0]
   80b0e:	222d      	movs	r2, #45	; 0x2d
   80b10:	701a      	strb	r2, [r3, #0]
   80b12:	4b3d      	ldr	r3, [pc, #244]	; (80c08 <UnityPrintNumber+0x18c>)
   80b14:	6818      	ldr	r0, [r3, #0]
   80b16:	6882      	ldr	r2, [r0, #8]
   80b18:	6813      	ldr	r3, [r2, #0]
   80b1a:	7819      	ldrb	r1, [r3, #0]
   80b1c:	290a      	cmp	r1, #10
   80b1e:	d002      	beq.n	80b26 <UnityPrintNumber+0xaa>
   80b20:	3301      	adds	r3, #1
   80b22:	6013      	str	r3, [r2, #0]
   80b24:	e011      	b.n	80b4a <UnityPrintNumber+0xce>
   80b26:	210a      	movs	r1, #10
   80b28:	4b38      	ldr	r3, [pc, #224]	; (80c0c <UnityPrintNumber+0x190>)
   80b2a:	4798      	blx	r3
   80b2c:	e00d      	b.n	80b4a <UnityPrintNumber+0xce>
   80b2e:	212d      	movs	r1, #45	; 0x2d
   80b30:	4b36      	ldr	r3, [pc, #216]	; (80c0c <UnityPrintNumber+0x190>)
   80b32:	4798      	blx	r3
   80b34:	e009      	b.n	80b4a <UnityPrintNumber+0xce>
   80b36:	6883      	ldr	r3, [r0, #8]
   80b38:	681b      	ldr	r3, [r3, #0]
   80b3a:	222d      	movs	r2, #45	; 0x2d
   80b3c:	701a      	strb	r2, [r3, #0]
   80b3e:	4b32      	ldr	r3, [pc, #200]	; (80c08 <UnityPrintNumber+0x18c>)
   80b40:	681b      	ldr	r3, [r3, #0]
   80b42:	689b      	ldr	r3, [r3, #8]
   80b44:	681a      	ldr	r2, [r3, #0]
   80b46:	3201      	adds	r2, #1
   80b48:	601a      	str	r2, [r3, #0]
   80b4a:	426d      	negs	r5, r5
   80b4c:	e006      	b.n	80b5c <UnityPrintNumber+0xe0>
   80b4e:	eb04 0384 	add.w	r3, r4, r4, lsl #2
   80b52:	005b      	lsls	r3, r3, #1
   80b54:	429c      	cmp	r4, r3
   80b56:	da06      	bge.n	80b66 <UnityPrintNumber+0xea>
   80b58:	461c      	mov	r4, r3
   80b5a:	e000      	b.n	80b5e <UnityPrintNumber+0xe2>
   80b5c:	2401      	movs	r4, #1
   80b5e:	fbb5 f3f4 	udiv	r3, r5, r4
   80b62:	2b09      	cmp	r3, #9
   80b64:	d8f3      	bhi.n	80b4e <UnityPrintNumber+0xd2>
   80b66:	4e28      	ldr	r6, [pc, #160]	; (80c08 <UnityPrintNumber+0x18c>)
   80b68:	4f29      	ldr	r7, [pc, #164]	; (80c10 <UnityPrintNumber+0x194>)
   80b6a:	f8df 80a0 	ldr.w	r8, [pc, #160]	; 80c0c <UnityPrintNumber+0x190>
   80b6e:	6830      	ldr	r0, [r6, #0]
   80b70:	6882      	ldr	r2, [r0, #8]
   80b72:	6893      	ldr	r3, [r2, #8]
   80b74:	3b01      	subs	r3, #1
   80b76:	6093      	str	r3, [r2, #8]
   80b78:	2b00      	cmp	r3, #0
   80b7a:	da29      	bge.n	80bd0 <UnityPrintNumber+0x154>
   80b7c:	6882      	ldr	r2, [r0, #8]
   80b7e:	6891      	ldr	r1, [r2, #8]
   80b80:	6993      	ldr	r3, [r2, #24]
   80b82:	4299      	cmp	r1, r3
   80b84:	db17      	blt.n	80bb6 <UnityPrintNumber+0x13a>
   80b86:	6811      	ldr	r1, [r2, #0]
   80b88:	fbb5 f3f4 	udiv	r3, r5, r4
   80b8c:	fba7 0203 	umull	r0, r2, r7, r3
   80b90:	08d2      	lsrs	r2, r2, #3
   80b92:	eb02 0282 	add.w	r2, r2, r2, lsl #2
   80b96:	eba3 0342 	sub.w	r3, r3, r2, lsl #1
   80b9a:	3330      	adds	r3, #48	; 0x30
   80b9c:	700b      	strb	r3, [r1, #0]
   80b9e:	6830      	ldr	r0, [r6, #0]
   80ba0:	6882      	ldr	r2, [r0, #8]
   80ba2:	6813      	ldr	r3, [r2, #0]
   80ba4:	7819      	ldrb	r1, [r3, #0]
   80ba6:	290a      	cmp	r1, #10
   80ba8:	d002      	beq.n	80bb0 <UnityPrintNumber+0x134>
   80baa:	3301      	adds	r3, #1
   80bac:	6013      	str	r3, [r2, #0]
   80bae:	e021      	b.n	80bf4 <UnityPrintNumber+0x178>
   80bb0:	210a      	movs	r1, #10
   80bb2:	47c0      	blx	r8
   80bb4:	e01e      	b.n	80bf4 <UnityPrintNumber+0x178>
   80bb6:	fbb5 f3f4 	udiv	r3, r5, r4
   80bba:	fba7 e103 	umull	lr, r1, r7, r3
   80bbe:	08c9      	lsrs	r1, r1, #3
   80bc0:	eb01 0181 	add.w	r1, r1, r1, lsl #2
   80bc4:	eba3 0141 	sub.w	r1, r3, r1, lsl #1
   80bc8:	3130      	adds	r1, #48	; 0x30
   80bca:	b2c9      	uxtb	r1, r1
   80bcc:	47c0      	blx	r8
   80bce:	e011      	b.n	80bf4 <UnityPrintNumber+0x178>
   80bd0:	6883      	ldr	r3, [r0, #8]
   80bd2:	6819      	ldr	r1, [r3, #0]
   80bd4:	fbb5 f3f4 	udiv	r3, r5, r4
   80bd8:	fba7 0203 	umull	r0, r2, r7, r3
   80bdc:	08d2      	lsrs	r2, r2, #3
   80bde:	eb02 0282 	add.w	r2, r2, r2, lsl #2
   80be2:	eba3 0342 	sub.w	r3, r3, r2, lsl #1
   80be6:	3330      	adds	r3, #48	; 0x30
   80be8:	700b      	strb	r3, [r1, #0]
   80bea:	6833      	ldr	r3, [r6, #0]
   80bec:	689b      	ldr	r3, [r3, #8]
   80bee:	681a      	ldr	r2, [r3, #0]
   80bf0:	3201      	adds	r2, #1
   80bf2:	601a      	str	r2, [r3, #0]
   80bf4:	4b07      	ldr	r3, [pc, #28]	; (80c14 <UnityPrintNumber+0x198>)
   80bf6:	fb83 2304 	smull	r2, r3, r3, r4
   80bfa:	17e4      	asrs	r4, r4, #31
   80bfc:	ebc4 04a3 	rsb	r4, r4, r3, asr #2
   80c00:	2c00      	cmp	r4, #0
   80c02:	dcb4      	bgt.n	80b6e <UnityPrintNumber+0xf2>
   80c04:	e8bd 81f0 	ldmia.w	sp!, {r4, r5, r6, r7, r8, pc}
   80c08:	20070560 	.word	0x20070560
   80c0c:	00082249 	.word	0x00082249
   80c10:	cccccccd 	.word	0xcccccccd
   80c14:	66666667 	.word	0x66666667

00080c18 <UnityPrintNumberUnsigned>:
   80c18:	e92d 41f0 	stmdb	sp!, {r4, r5, r6, r7, r8, lr}
   80c1c:	4607      	mov	r7, r0
   80c1e:	2401      	movs	r4, #1
   80c20:	e005      	b.n	80c2e <UnityPrintNumberUnsigned+0x16>
   80c22:	eb04 0384 	add.w	r3, r4, r4, lsl #2
   80c26:	005b      	lsls	r3, r3, #1
   80c28:	429c      	cmp	r4, r3
   80c2a:	d204      	bcs.n	80c36 <UnityPrintNumberUnsigned+0x1e>
   80c2c:	461c      	mov	r4, r3
   80c2e:	fbb7 f3f4 	udiv	r3, r7, r4
   80c32:	2b09      	cmp	r3, #9
   80c34:	d8f5      	bhi.n	80c22 <UnityPrintNumberUnsigned+0xa>
   80c36:	4e27      	ldr	r6, [pc, #156]	; (80cd4 <UnityPrintNumberUnsigned+0xbc>)
   80c38:	4d27      	ldr	r5, [pc, #156]	; (80cd8 <UnityPrintNumberUnsigned+0xc0>)
   80c3a:	f8df 80a0 	ldr.w	r8, [pc, #160]	; 80cdc <UnityPrintNumberUnsigned+0xc4>
   80c3e:	6833      	ldr	r3, [r6, #0]
   80c40:	6899      	ldr	r1, [r3, #8]
   80c42:	688a      	ldr	r2, [r1, #8]
   80c44:	3a01      	subs	r2, #1
   80c46:	608a      	str	r2, [r1, #8]
   80c48:	2a00      	cmp	r2, #0
   80c4a:	da2a      	bge.n	80ca2 <UnityPrintNumberUnsigned+0x8a>
   80c4c:	689a      	ldr	r2, [r3, #8]
   80c4e:	6890      	ldr	r0, [r2, #8]
   80c50:	6991      	ldr	r1, [r2, #24]
   80c52:	4288      	cmp	r0, r1
   80c54:	db17      	blt.n	80c86 <UnityPrintNumberUnsigned+0x6e>
   80c56:	6811      	ldr	r1, [r2, #0]
   80c58:	fbb7 f3f4 	udiv	r3, r7, r4
   80c5c:	fba5 0203 	umull	r0, r2, r5, r3
   80c60:	08d2      	lsrs	r2, r2, #3
   80c62:	eb02 0282 	add.w	r2, r2, r2, lsl #2
   80c66:	eba3 0342 	sub.w	r3, r3, r2, lsl #1
   80c6a:	3330      	adds	r3, #48	; 0x30
   80c6c:	700b      	strb	r3, [r1, #0]
   80c6e:	6830      	ldr	r0, [r6, #0]
   80c70:	6882      	ldr	r2, [r0, #8]
   80c72:	6813      	ldr	r3, [r2, #0]
   80c74:	7819      	ldrb	r1, [r3, #0]
   80c76:	290a      	cmp	r1, #10
   80c78:	d002      	beq.n	80c80 <UnityPrintNumberUnsigned+0x68>
   80c7a:	3301      	adds	r3, #1
   80c7c:	6013      	str	r3, [r2, #0]
   80c7e:	e022      	b.n	80cc6 <UnityPrintNumberUnsigned+0xae>
   80c80:	210a      	movs	r1, #10
   80c82:	47c0      	blx	r8
   80c84:	e01f      	b.n	80cc6 <UnityPrintNumberUnsigned+0xae>
   80c86:	fbb7 f1f4 	udiv	r1, r7, r4
   80c8a:	fba5 e001 	umull	lr, r0, r5, r1
   80c8e:	08c0      	lsrs	r0, r0, #3
   80c90:	eb00 0080 	add.w	r0, r0, r0, lsl #2
   80c94:	eba1 0140 	sub.w	r1, r1, r0, lsl #1
   80c98:	3130      	adds	r1, #48	; 0x30
   80c9a:	4618      	mov	r0, r3
   80c9c:	b2c9      	uxtb	r1, r1
   80c9e:	47c0      	blx	r8
   80ca0:	e011      	b.n	80cc6 <UnityPrintNumberUnsigned+0xae>
   80ca2:	689b      	ldr	r3, [r3, #8]
   80ca4:	6819      	ldr	r1, [r3, #0]
   80ca6:	fbb7 f3f4 	udiv	r3, r7, r4
   80caa:	fba5 0203 	umull	r0, r2, r5, r3
   80cae:	08d2      	lsrs	r2, r2, #3
   80cb0:	eb02 0282 	add.w	r2, r2, r2, lsl #2
   80cb4:	eba3 0342 	sub.w	r3, r3, r2, lsl #1
   80cb8:	3330      	adds	r3, #48	; 0x30
   80cba:	700b      	strb	r3, [r1, #0]
   80cbc:	6833      	ldr	r3, [r6, #0]
   80cbe:	689b      	ldr	r3, [r3, #8]
   80cc0:	681a      	ldr	r2, [r3, #0]
   80cc2:	3201      	adds	r2, #1
   80cc4:	601a      	str	r2, [r3, #0]
   80cc6:	fba5 3404 	umull	r3, r4, r5, r4
   80cca:	08e4      	lsrs	r4, r4, #3
   80ccc:	d1b7      	bne.n	80c3e <UnityPrintNumberUnsigned+0x26>
   80cce:	e8bd 81f0 	ldmia.w	sp!, {r4, r5, r6, r7, r8, pc}
   80cd2:	bf00      	nop
   80cd4:	20070560 	.word	0x20070560
   80cd8:	cccccccd 	.word	0xcccccccd
   80cdc:	00082249 	.word	0x00082249

00080ce0 <UnityPrintNumberHex>:
   80ce0:	e92d 43f8 	stmdb	sp!, {r3, r4, r5, r6, r7, r8, r9, lr}
   80ce4:	4606      	mov	r6, r0
   80ce6:	460c      	mov	r4, r1
   80ce8:	4b5e      	ldr	r3, [pc, #376]	; (80e64 <UnityPrintNumberHex+0x184>)
   80cea:	6818      	ldr	r0, [r3, #0]
   80cec:	6882      	ldr	r2, [r0, #8]
   80cee:	6893      	ldr	r3, [r2, #8]
   80cf0:	3b01      	subs	r3, #1
   80cf2:	6093      	str	r3, [r2, #8]
   80cf4:	2b00      	cmp	r3, #0
   80cf6:	da19      	bge.n	80d2c <UnityPrintNumberHex+0x4c>
   80cf8:	6882      	ldr	r2, [r0, #8]
   80cfa:	6891      	ldr	r1, [r2, #8]
   80cfc:	6993      	ldr	r3, [r2, #24]
   80cfe:	4299      	cmp	r1, r3
   80d00:	db10      	blt.n	80d24 <UnityPrintNumberHex+0x44>
   80d02:	6813      	ldr	r3, [r2, #0]
   80d04:	2230      	movs	r2, #48	; 0x30
   80d06:	701a      	strb	r2, [r3, #0]
   80d08:	4b56      	ldr	r3, [pc, #344]	; (80e64 <UnityPrintNumberHex+0x184>)
   80d0a:	6818      	ldr	r0, [r3, #0]
   80d0c:	6882      	ldr	r2, [r0, #8]
   80d0e:	6813      	ldr	r3, [r2, #0]
   80d10:	7819      	ldrb	r1, [r3, #0]
   80d12:	290a      	cmp	r1, #10
   80d14:	d002      	beq.n	80d1c <UnityPrintNumberHex+0x3c>
   80d16:	3301      	adds	r3, #1
   80d18:	6013      	str	r3, [r2, #0]
   80d1a:	e011      	b.n	80d40 <UnityPrintNumberHex+0x60>
   80d1c:	210a      	movs	r1, #10
   80d1e:	4b52      	ldr	r3, [pc, #328]	; (80e68 <UnityPrintNumberHex+0x188>)
   80d20:	4798      	blx	r3
   80d22:	e00d      	b.n	80d40 <UnityPrintNumberHex+0x60>
   80d24:	2130      	movs	r1, #48	; 0x30
   80d26:	4b50      	ldr	r3, [pc, #320]	; (80e68 <UnityPrintNumberHex+0x188>)
   80d28:	4798      	blx	r3
   80d2a:	e009      	b.n	80d40 <UnityPrintNumberHex+0x60>
   80d2c:	6883      	ldr	r3, [r0, #8]
   80d2e:	681b      	ldr	r3, [r3, #0]
   80d30:	2230      	movs	r2, #48	; 0x30
   80d32:	701a      	strb	r2, [r3, #0]
   80d34:	4b4b      	ldr	r3, [pc, #300]	; (80e64 <UnityPrintNumberHex+0x184>)
   80d36:	681b      	ldr	r3, [r3, #0]
   80d38:	689b      	ldr	r3, [r3, #8]
   80d3a:	681a      	ldr	r2, [r3, #0]
   80d3c:	3201      	adds	r2, #1
   80d3e:	601a      	str	r2, [r3, #0]
   80d40:	4b48      	ldr	r3, [pc, #288]	; (80e64 <UnityPrintNumberHex+0x184>)
   80d42:	6818      	ldr	r0, [r3, #0]
   80d44:	6882      	ldr	r2, [r0, #8]
   80d46:	6893      	ldr	r3, [r2, #8]
   80d48:	3b01      	subs	r3, #1
   80d4a:	6093      	str	r3, [r2, #8]
   80d4c:	2b00      	cmp	r3, #0
   80d4e:	da1b      	bge.n	80d88 <UnityPrintNumberHex+0xa8>
   80d50:	6882      	ldr	r2, [r0, #8]
   80d52:	6891      	ldr	r1, [r2, #8]
   80d54:	6993      	ldr	r3, [r2, #24]
   80d56:	4299      	cmp	r1, r3
   80d58:	db10      	blt.n	80d7c <UnityPrintNumberHex+0x9c>
   80d5a:	6813      	ldr	r3, [r2, #0]
   80d5c:	2278      	movs	r2, #120	; 0x78
   80d5e:	701a      	strb	r2, [r3, #0]
   80d60:	4b40      	ldr	r3, [pc, #256]	; (80e64 <UnityPrintNumberHex+0x184>)
   80d62:	6818      	ldr	r0, [r3, #0]
   80d64:	6882      	ldr	r2, [r0, #8]
   80d66:	6813      	ldr	r3, [r2, #0]
   80d68:	7819      	ldrb	r1, [r3, #0]
   80d6a:	290a      	cmp	r1, #10
   80d6c:	d002      	beq.n	80d74 <UnityPrintNumberHex+0x94>
   80d6e:	3301      	adds	r3, #1
   80d70:	6013      	str	r3, [r2, #0]
   80d72:	e006      	b.n	80d82 <UnityPrintNumberHex+0xa2>
   80d74:	210a      	movs	r1, #10
   80d76:	4b3c      	ldr	r3, [pc, #240]	; (80e68 <UnityPrintNumberHex+0x188>)
   80d78:	4798      	blx	r3
   80d7a:	e002      	b.n	80d82 <UnityPrintNumberHex+0xa2>
   80d7c:	2178      	movs	r1, #120	; 0x78
   80d7e:	4b3a      	ldr	r3, [pc, #232]	; (80e68 <UnityPrintNumberHex+0x188>)
   80d80:	4798      	blx	r3
   80d82:	b964      	cbnz	r4, 80d9e <UnityPrintNumberHex+0xbe>
   80d84:	e8bd 83f8 	ldmia.w	sp!, {r3, r4, r5, r6, r7, r8, r9, pc}
   80d88:	6883      	ldr	r3, [r0, #8]
   80d8a:	681b      	ldr	r3, [r3, #0]
   80d8c:	2278      	movs	r2, #120	; 0x78
   80d8e:	701a      	strb	r2, [r3, #0]
   80d90:	4b34      	ldr	r3, [pc, #208]	; (80e64 <UnityPrintNumberHex+0x184>)
   80d92:	681b      	ldr	r3, [r3, #0]
   80d94:	689b      	ldr	r3, [r3, #8]
   80d96:	681a      	ldr	r2, [r3, #0]
   80d98:	3201      	adds	r2, #1
   80d9a:	601a      	str	r2, [r3, #0]
   80d9c:	e7f1      	b.n	80d82 <UnityPrintNumberHex+0xa2>
   80d9e:	4d31      	ldr	r5, [pc, #196]	; (80e64 <UnityPrintNumberHex+0x184>)
   80da0:	f8df 90c4 	ldr.w	r9, [pc, #196]	; 80e68 <UnityPrintNumberHex+0x188>
   80da4:	f04f 080a 	mov.w	r8, #10
   80da8:	3c01      	subs	r4, #1
   80daa:	b2e4      	uxtb	r4, r4
   80dac:	00a3      	lsls	r3, r4, #2
   80dae:	fa26 f303 	lsr.w	r3, r6, r3
   80db2:	f003 030f 	and.w	r3, r3, #15
   80db6:	2b09      	cmp	r3, #9
   80db8:	d828      	bhi.n	80e0c <UnityPrintNumberHex+0x12c>
   80dba:	6828      	ldr	r0, [r5, #0]
   80dbc:	6881      	ldr	r1, [r0, #8]
   80dbe:	688a      	ldr	r2, [r1, #8]
   80dc0:	3a01      	subs	r2, #1
   80dc2:	608a      	str	r2, [r1, #8]
   80dc4:	2a00      	cmp	r2, #0
   80dc6:	da17      	bge.n	80df8 <UnityPrintNumberHex+0x118>
   80dc8:	6882      	ldr	r2, [r0, #8]
   80dca:	6891      	ldr	r1, [r2, #8]
   80dcc:	6997      	ldr	r7, [r2, #24]
   80dce:	42b9      	cmp	r1, r7
   80dd0:	db0e      	blt.n	80df0 <UnityPrintNumberHex+0x110>
   80dd2:	6812      	ldr	r2, [r2, #0]
   80dd4:	3330      	adds	r3, #48	; 0x30
   80dd6:	7013      	strb	r3, [r2, #0]
   80dd8:	6828      	ldr	r0, [r5, #0]
   80dda:	6882      	ldr	r2, [r0, #8]
   80ddc:	6813      	ldr	r3, [r2, #0]
   80dde:	7819      	ldrb	r1, [r3, #0]
   80de0:	290a      	cmp	r1, #10
   80de2:	d002      	beq.n	80dea <UnityPrintNumberHex+0x10a>
   80de4:	3301      	adds	r3, #1
   80de6:	6013      	str	r3, [r2, #0]
   80de8:	e038      	b.n	80e5c <UnityPrintNumberHex+0x17c>
   80dea:	4641      	mov	r1, r8
   80dec:	47c8      	blx	r9
   80dee:	e035      	b.n	80e5c <UnityPrintNumberHex+0x17c>
   80df0:	f103 0130 	add.w	r1, r3, #48	; 0x30
   80df4:	47c8      	blx	r9
   80df6:	e031      	b.n	80e5c <UnityPrintNumberHex+0x17c>
   80df8:	6882      	ldr	r2, [r0, #8]
   80dfa:	6812      	ldr	r2, [r2, #0]
   80dfc:	3330      	adds	r3, #48	; 0x30
   80dfe:	7013      	strb	r3, [r2, #0]
   80e00:	682b      	ldr	r3, [r5, #0]
   80e02:	689b      	ldr	r3, [r3, #8]
   80e04:	681a      	ldr	r2, [r3, #0]
   80e06:	3201      	adds	r2, #1
   80e08:	601a      	str	r2, [r3, #0]
   80e0a:	e027      	b.n	80e5c <UnityPrintNumberHex+0x17c>
   80e0c:	6828      	ldr	r0, [r5, #0]
   80e0e:	6881      	ldr	r1, [r0, #8]
   80e10:	688a      	ldr	r2, [r1, #8]
   80e12:	3a01      	subs	r2, #1
   80e14:	608a      	str	r2, [r1, #8]
   80e16:	2a00      	cmp	r2, #0
   80e18:	da17      	bge.n	80e4a <UnityPrintNumberHex+0x16a>
   80e1a:	6882      	ldr	r2, [r0, #8]
   80e1c:	6891      	ldr	r1, [r2, #8]
   80e1e:	6997      	ldr	r7, [r2, #24]
   80e20:	42b9      	cmp	r1, r7
   80e22:	db0e      	blt.n	80e42 <UnityPrintNumberHex+0x162>
   80e24:	6812      	ldr	r2, [r2, #0]
   80e26:	3337      	adds	r3, #55	; 0x37
   80e28:	7013      	strb	r3, [r2, #0]
   80e2a:	6828      	ldr	r0, [r5, #0]
   80e2c:	6882      	ldr	r2, [r0, #8]
   80e2e:	6813      	ldr	r3, [r2, #0]
   80e30:	7819      	ldrb	r1, [r3, #0]
   80e32:	290a      	cmp	r1, #10
   80e34:	d002      	beq.n	80e3c <UnityPrintNumberHex+0x15c>
   80e36:	3301      	adds	r3, #1
   80e38:	6013      	str	r3, [r2, #0]
   80e3a:	e00f      	b.n	80e5c <UnityPrintNumberHex+0x17c>
   80e3c:	4641      	mov	r1, r8
   80e3e:	47c8      	blx	r9
   80e40:	e00c      	b.n	80e5c <UnityPrintNumberHex+0x17c>
   80e42:	f103 0137 	add.w	r1, r3, #55	; 0x37
   80e46:	47c8      	blx	r9
   80e48:	e008      	b.n	80e5c <UnityPrintNumberHex+0x17c>
   80e4a:	6882      	ldr	r2, [r0, #8]
   80e4c:	6812      	ldr	r2, [r2, #0]
   80e4e:	3337      	adds	r3, #55	; 0x37
   80e50:	7013      	strb	r3, [r2, #0]
   80e52:	682b      	ldr	r3, [r5, #0]
   80e54:	689b      	ldr	r3, [r3, #8]
   80e56:	681a      	ldr	r2, [r3, #0]
   80e58:	3201      	adds	r2, #1
   80e5a:	601a      	str	r2, [r3, #0]
   80e5c:	2c00      	cmp	r4, #0
   80e5e:	d1a3      	bne.n	80da8 <UnityPrintNumberHex+0xc8>
   80e60:	e8bd 83f8 	ldmia.w	sp!, {r3, r4, r5, r6, r7, r8, r9, pc}
   80e64:	20070560 	.word	0x20070560
   80e68:	00082249 	.word	0x00082249

00080e6c <UnityPrint>:
   80e6c:	b5f8      	push	{r3, r4, r5, r6, r7, lr}
   80e6e:	2800      	cmp	r0, #0
   80e70:	f000 810a 	beq.w	81088 <UnityPrint+0x21c>
   80e74:	7803      	ldrb	r3, [r0, #0]
   80e76:	2b00      	cmp	r3, #0
   80e78:	f000 8106 	beq.w	81088 <UnityPrint+0x21c>
   80e7c:	1c44      	adds	r4, r0, #1
   80e7e:	4d83      	ldr	r5, [pc, #524]	; (8108c <UnityPrint+0x220>)
   80e80:	4e83      	ldr	r6, [pc, #524]	; (81090 <UnityPrint+0x224>)
   80e82:	4f84      	ldr	r7, [pc, #528]	; (81094 <UnityPrint+0x228>)
   80e84:	f1a3 0220 	sub.w	r2, r3, #32
   80e88:	b2d2      	uxtb	r2, r2
   80e8a:	2a5e      	cmp	r2, #94	; 0x5e
   80e8c:	d82a      	bhi.n	80ee4 <UnityPrint+0x78>
   80e8e:	6828      	ldr	r0, [r5, #0]
   80e90:	6882      	ldr	r2, [r0, #8]
   80e92:	6893      	ldr	r3, [r2, #8]
   80e94:	3b01      	subs	r3, #1
   80e96:	6093      	str	r3, [r2, #8]
   80e98:	2b00      	cmp	r3, #0
   80e9a:	da18      	bge.n	80ece <UnityPrint+0x62>
   80e9c:	6882      	ldr	r2, [r0, #8]
   80e9e:	6891      	ldr	r1, [r2, #8]
   80ea0:	6993      	ldr	r3, [r2, #24]
   80ea2:	4299      	cmp	r1, r3
   80ea4:	db0f      	blt.n	80ec6 <UnityPrint+0x5a>
   80ea6:	6813      	ldr	r3, [r2, #0]
   80ea8:	f814 2c01 	ldrb.w	r2, [r4, #-1]
   80eac:	701a      	strb	r2, [r3, #0]
   80eae:	6828      	ldr	r0, [r5, #0]
   80eb0:	6882      	ldr	r2, [r0, #8]
   80eb2:	6813      	ldr	r3, [r2, #0]
   80eb4:	7819      	ldrb	r1, [r3, #0]
   80eb6:	290a      	cmp	r1, #10
   80eb8:	d002      	beq.n	80ec0 <UnityPrint+0x54>
   80eba:	3301      	adds	r3, #1
   80ebc:	6013      	str	r3, [r2, #0]
   80ebe:	e0de      	b.n	8107e <UnityPrint+0x212>
   80ec0:	210a      	movs	r1, #10
   80ec2:	47b8      	blx	r7
   80ec4:	e0db      	b.n	8107e <UnityPrint+0x212>
   80ec6:	f814 1c01 	ldrb.w	r1, [r4, #-1]
   80eca:	47b8      	blx	r7
   80ecc:	e0d7      	b.n	8107e <UnityPrint+0x212>
   80ece:	6883      	ldr	r3, [r0, #8]
   80ed0:	681b      	ldr	r3, [r3, #0]
   80ed2:	f814 2c01 	ldrb.w	r2, [r4, #-1]
   80ed6:	701a      	strb	r2, [r3, #0]
   80ed8:	682b      	ldr	r3, [r5, #0]
   80eda:	689b      	ldr	r3, [r3, #8]
   80edc:	681a      	ldr	r2, [r3, #0]
   80ede:	3201      	adds	r2, #1
   80ee0:	601a      	str	r2, [r3, #0]
   80ee2:	e0cc      	b.n	8107e <UnityPrint+0x212>
   80ee4:	2b0d      	cmp	r3, #13
   80ee6:	d14e      	bne.n	80f86 <UnityPrint+0x11a>
   80ee8:	6828      	ldr	r0, [r5, #0]
   80eea:	6882      	ldr	r2, [r0, #8]
   80eec:	6893      	ldr	r3, [r2, #8]
   80eee:	3b01      	subs	r3, #1
   80ef0:	6093      	str	r3, [r2, #8]
   80ef2:	2b00      	cmp	r3, #0
   80ef4:	da16      	bge.n	80f24 <UnityPrint+0xb8>
   80ef6:	6882      	ldr	r2, [r0, #8]
   80ef8:	6891      	ldr	r1, [r2, #8]
   80efa:	6993      	ldr	r3, [r2, #24]
   80efc:	4299      	cmp	r1, r3
   80efe:	db0e      	blt.n	80f1e <UnityPrint+0xb2>
   80f00:	6813      	ldr	r3, [r2, #0]
   80f02:	225c      	movs	r2, #92	; 0x5c
   80f04:	701a      	strb	r2, [r3, #0]
   80f06:	6828      	ldr	r0, [r5, #0]
   80f08:	6882      	ldr	r2, [r0, #8]
   80f0a:	6813      	ldr	r3, [r2, #0]
   80f0c:	7819      	ldrb	r1, [r3, #0]
   80f0e:	290a      	cmp	r1, #10
   80f10:	d002      	beq.n	80f18 <UnityPrint+0xac>
   80f12:	3301      	adds	r3, #1
   80f14:	6013      	str	r3, [r2, #0]
   80f16:	e00e      	b.n	80f36 <UnityPrint+0xca>
   80f18:	210a      	movs	r1, #10
   80f1a:	47b8      	blx	r7
   80f1c:	e00b      	b.n	80f36 <UnityPrint+0xca>
   80f1e:	215c      	movs	r1, #92	; 0x5c
   80f20:	47b8      	blx	r7
   80f22:	e008      	b.n	80f36 <UnityPrint+0xca>
   80f24:	6883      	ldr	r3, [r0, #8]
   80f26:	681b      	ldr	r3, [r3, #0]
   80f28:	225c      	movs	r2, #92	; 0x5c
   80f2a:	701a      	strb	r2, [r3, #0]
   80f2c:	682b      	ldr	r3, [r5, #0]
   80f2e:	689b      	ldr	r3, [r3, #8]
   80f30:	681a      	ldr	r2, [r3, #0]
   80f32:	3201      	adds	r2, #1
   80f34:	601a      	str	r2, [r3, #0]
   80f36:	6828      	ldr	r0, [r5, #0]
   80f38:	6882      	ldr	r2, [r0, #8]
   80f3a:	6893      	ldr	r3, [r2, #8]
   80f3c:	3b01      	subs	r3, #1
   80f3e:	6093      	str	r3, [r2, #8]
   80f40:	2b00      	cmp	r3, #0
   80f42:	da16      	bge.n	80f72 <UnityPrint+0x106>
   80f44:	6882      	ldr	r2, [r0, #8]
   80f46:	6891      	ldr	r1, [r2, #8]
   80f48:	6993      	ldr	r3, [r2, #24]
   80f4a:	4299      	cmp	r1, r3
   80f4c:	db0e      	blt.n	80f6c <UnityPrint+0x100>
   80f4e:	6813      	ldr	r3, [r2, #0]
   80f50:	2272      	movs	r2, #114	; 0x72
   80f52:	701a      	strb	r2, [r3, #0]
   80f54:	6828      	ldr	r0, [r5, #0]
   80f56:	6882      	ldr	r2, [r0, #8]
   80f58:	6813      	ldr	r3, [r2, #0]
   80f5a:	7819      	ldrb	r1, [r3, #0]
   80f5c:	290a      	cmp	r1, #10
   80f5e:	d002      	beq.n	80f66 <UnityPrint+0xfa>
   80f60:	3301      	adds	r3, #1
   80f62:	6013      	str	r3, [r2, #0]
   80f64:	e08b      	b.n	8107e <UnityPrint+0x212>
   80f66:	210a      	movs	r1, #10
   80f68:	47b8      	blx	r7
   80f6a:	e088      	b.n	8107e <UnityPrint+0x212>
   80f6c:	2172      	movs	r1, #114	; 0x72
   80f6e:	47b8      	blx	r7
   80f70:	e085      	b.n	8107e <UnityPrint+0x212>
   80f72:	6883      	ldr	r3, [r0, #8]
   80f74:	681b      	ldr	r3, [r3, #0]
   80f76:	2272      	movs	r2, #114	; 0x72
   80f78:	701a      	strb	r2, [r3, #0]
   80f7a:	682b      	ldr	r3, [r5, #0]
   80f7c:	689b      	ldr	r3, [r3, #8]
   80f7e:	681a      	ldr	r2, [r3, #0]
   80f80:	3201      	adds	r2, #1
   80f82:	601a      	str	r2, [r3, #0]
   80f84:	e07b      	b.n	8107e <UnityPrint+0x212>
   80f86:	2b0a      	cmp	r3, #10
   80f88:	d14e      	bne.n	81028 <UnityPrint+0x1bc>
   80f8a:	6828      	ldr	r0, [r5, #0]
   80f8c:	6882      	ldr	r2, [r0, #8]
   80f8e:	6893      	ldr	r3, [r2, #8]
   80f90:	3b01      	subs	r3, #1
   80f92:	6093      	str	r3, [r2, #8]
   80f94:	2b00      	cmp	r3, #0
   80f96:	da16      	bge.n	80fc6 <UnityPrint+0x15a>
   80f98:	6882      	ldr	r2, [r0, #8]
   80f9a:	6891      	ldr	r1, [r2, #8]
   80f9c:	6993      	ldr	r3, [r2, #24]
   80f9e:	4299      	cmp	r1, r3
   80fa0:	db0e      	blt.n	80fc0 <UnityPrint+0x154>
   80fa2:	6813      	ldr	r3, [r2, #0]
   80fa4:	225c      	movs	r2, #92	; 0x5c
   80fa6:	701a      	strb	r2, [r3, #0]
   80fa8:	6828      	ldr	r0, [r5, #0]
   80faa:	6882      	ldr	r2, [r0, #8]
   80fac:	6813      	ldr	r3, [r2, #0]
   80fae:	7819      	ldrb	r1, [r3, #0]
   80fb0:	290a      	cmp	r1, #10
   80fb2:	d002      	beq.n	80fba <UnityPrint+0x14e>
   80fb4:	3301      	adds	r3, #1
   80fb6:	6013      	str	r3, [r2, #0]
   80fb8:	e00e      	b.n	80fd8 <UnityPrint+0x16c>
   80fba:	210a      	movs	r1, #10
   80fbc:	47b8      	blx	r7
   80fbe:	e00b      	b.n	80fd8 <UnityPrint+0x16c>
   80fc0:	215c      	movs	r1, #92	; 0x5c
   80fc2:	47b8      	blx	r7
   80fc4:	e008      	b.n	80fd8 <UnityPrint+0x16c>
   80fc6:	6883      	ldr	r3, [r0, #8]
   80fc8:	681b      	ldr	r3, [r3, #0]
   80fca:	225c      	movs	r2, #92	; 0x5c
   80fcc:	701a      	strb	r2, [r3, #0]
   80fce:	682b      	ldr	r3, [r5, #0]
   80fd0:	689b      	ldr	r3, [r3, #8]
   80fd2:	681a      	ldr	r2, [r3, #0]
   80fd4:	3201      	adds	r2, #1
   80fd6:	601a      	str	r2, [r3, #0]
   80fd8:	6828      	ldr	r0, [r5, #0]
   80fda:	6882      	ldr	r2, [r0, #8]
   80fdc:	6893      	ldr	r3, [r2, #8]
   80fde:	3b01      	subs	r3, #1
   80fe0:	6093      	str	r3, [r2, #8]
   80fe2:	2b00      	cmp	r3, #0
   80fe4:	da16      	bge.n	81014 <UnityPrint+0x1a8>
   80fe6:	6882      	ldr	r2, [r0, #8]
   80fe8:	6891      	ldr	r1, [r2, #8]
   80fea:	6993      	ldr	r3, [r2, #24]
   80fec:	4299      	cmp	r1, r3
   80fee:	db0e      	blt.n	8100e <UnityPrint+0x1a2>
   80ff0:	6813      	ldr	r3, [r2, #0]
   80ff2:	226e      	movs	r2, #110	; 0x6e
   80ff4:	701a      	strb	r2, [r3, #0]
   80ff6:	6828      	ldr	r0, [r5, #0]
   80ff8:	6882      	ldr	r2, [r0, #8]
   80ffa:	6813      	ldr	r3, [r2, #0]
   80ffc:	7819      	ldrb	r1, [r3, #0]
   80ffe:	290a      	cmp	r1, #10
   81000:	d002      	beq.n	81008 <UnityPrint+0x19c>
   81002:	3301      	adds	r3, #1
   81004:	6013      	str	r3, [r2, #0]
   81006:	e03a      	b.n	8107e <UnityPrint+0x212>
   81008:	210a      	movs	r1, #10
   8100a:	47b8      	blx	r7
   8100c:	e037      	b.n	8107e <UnityPrint+0x212>
   8100e:	216e      	movs	r1, #110	; 0x6e
   81010:	47b8      	blx	r7
   81012:	e034      	b.n	8107e <UnityPrint+0x212>
   81014:	6883      	ldr	r3, [r0, #8]
   81016:	681b      	ldr	r3, [r3, #0]
   81018:	226e      	movs	r2, #110	; 0x6e
   8101a:	701a      	strb	r2, [r3, #0]
   8101c:	682b      	ldr	r3, [r5, #0]
   8101e:	689b      	ldr	r3, [r3, #8]
   81020:	681a      	ldr	r2, [r3, #0]
   81022:	3201      	adds	r2, #1
   81024:	601a      	str	r2, [r3, #0]
   81026:	e02a      	b.n	8107e <UnityPrint+0x212>
   81028:	6828      	ldr	r0, [r5, #0]
   8102a:	6882      	ldr	r2, [r0, #8]
   8102c:	6893      	ldr	r3, [r2, #8]
   8102e:	3b01      	subs	r3, #1
   81030:	6093      	str	r3, [r2, #8]
   81032:	2b00      	cmp	r3, #0
   81034:	da16      	bge.n	81064 <UnityPrint+0x1f8>
   81036:	6882      	ldr	r2, [r0, #8]
   81038:	6891      	ldr	r1, [r2, #8]
   8103a:	6993      	ldr	r3, [r2, #24]
   8103c:	4299      	cmp	r1, r3
   8103e:	db0e      	blt.n	8105e <UnityPrint+0x1f2>
   81040:	6813      	ldr	r3, [r2, #0]
   81042:	225c      	movs	r2, #92	; 0x5c
   81044:	701a      	strb	r2, [r3, #0]
   81046:	6828      	ldr	r0, [r5, #0]
   81048:	6882      	ldr	r2, [r0, #8]
   8104a:	6813      	ldr	r3, [r2, #0]
   8104c:	7819      	ldrb	r1, [r3, #0]
   8104e:	290a      	cmp	r1, #10
   81050:	d002      	beq.n	81058 <UnityPrint+0x1ec>
   81052:	3301      	adds	r3, #1
   81054:	6013      	str	r3, [r2, #0]
   81056:	e00e      	b.n	81076 <UnityPrint+0x20a>
   81058:	210a      	movs	r1, #10
   8105a:	47b8      	blx	r7
   8105c:	e00b      	b.n	81076 <UnityPrint+0x20a>
   8105e:	215c      	movs	r1, #92	; 0x5c
   81060:	47b8      	blx	r7
   81062:	e008      	b.n	81076 <UnityPrint+0x20a>
   81064:	6883      	ldr	r3, [r0, #8]
   81066:	681b      	ldr	r3, [r3, #0]
   81068:	225c      	movs	r2, #92	; 0x5c
   8106a:	701a      	strb	r2, [r3, #0]
   8106c:	682b      	ldr	r3, [r5, #0]
   8106e:	689b      	ldr	r3, [r3, #8]
   81070:	681a      	ldr	r2, [r3, #0]
   81072:	3201      	adds	r2, #1
   81074:	601a      	str	r2, [r3, #0]
   81076:	f814 0c01 	ldrb.w	r0, [r4, #-1]
   8107a:	2102      	movs	r1, #2
   8107c:	47b0      	blx	r6
   8107e:	f814 3b01 	ldrb.w	r3, [r4], #1
   81082:	2b00      	cmp	r3, #0
   81084:	f47f aefe 	bne.w	80e84 <UnityPrint+0x18>
   81088:	bdf8      	pop	{r3, r4, r5, r6, r7, pc}
   8108a:	bf00      	nop
   8108c:	20070560 	.word	0x20070560
   81090:	00080ce1 	.word	0x00080ce1
   81094:	00082249 	.word	0x00082249

00081098 <UnityTestResultsBegin>:
   81098:	b538      	push	{r3, r4, r5, lr}
   8109a:	460d      	mov	r5, r1
   8109c:	4b46      	ldr	r3, [pc, #280]	; (811b8 <UnityTestResultsBegin+0x120>)
   8109e:	4798      	blx	r3
   810a0:	4b46      	ldr	r3, [pc, #280]	; (811bc <UnityTestResultsBegin+0x124>)
   810a2:	6818      	ldr	r0, [r3, #0]
   810a4:	6884      	ldr	r4, [r0, #8]
   810a6:	68a2      	ldr	r2, [r4, #8]
   810a8:	3a01      	subs	r2, #1
   810aa:	60a2      	str	r2, [r4, #8]
   810ac:	2a00      	cmp	r2, #0
   810ae:	da19      	bge.n	810e4 <UnityTestResultsBegin+0x4c>
   810b0:	6882      	ldr	r2, [r0, #8]
   810b2:	6893      	ldr	r3, [r2, #8]
   810b4:	6991      	ldr	r1, [r2, #24]
   810b6:	428b      	cmp	r3, r1
   810b8:	db10      	blt.n	810dc <UnityTestResultsBegin+0x44>
   810ba:	6813      	ldr	r3, [r2, #0]
   810bc:	223a      	movs	r2, #58	; 0x3a
   810be:	701a      	strb	r2, [r3, #0]
   810c0:	4b3e      	ldr	r3, [pc, #248]	; (811bc <UnityTestResultsBegin+0x124>)
   810c2:	6818      	ldr	r0, [r3, #0]
   810c4:	6882      	ldr	r2, [r0, #8]
   810c6:	6813      	ldr	r3, [r2, #0]
   810c8:	7819      	ldrb	r1, [r3, #0]
   810ca:	290a      	cmp	r1, #10
   810cc:	d002      	beq.n	810d4 <UnityTestResultsBegin+0x3c>
   810ce:	3301      	adds	r3, #1
   810d0:	6013      	str	r3, [r2, #0]
   810d2:	e011      	b.n	810f8 <UnityTestResultsBegin+0x60>
   810d4:	210a      	movs	r1, #10
   810d6:	4b3a      	ldr	r3, [pc, #232]	; (811c0 <UnityTestResultsBegin+0x128>)
   810d8:	4798      	blx	r3
   810da:	e00d      	b.n	810f8 <UnityTestResultsBegin+0x60>
   810dc:	213a      	movs	r1, #58	; 0x3a
   810de:	4b38      	ldr	r3, [pc, #224]	; (811c0 <UnityTestResultsBegin+0x128>)
   810e0:	4798      	blx	r3
   810e2:	e009      	b.n	810f8 <UnityTestResultsBegin+0x60>
   810e4:	6883      	ldr	r3, [r0, #8]
   810e6:	681b      	ldr	r3, [r3, #0]
   810e8:	223a      	movs	r2, #58	; 0x3a
   810ea:	701a      	strb	r2, [r3, #0]
   810ec:	4b33      	ldr	r3, [pc, #204]	; (811bc <UnityTestResultsBegin+0x124>)
   810ee:	681b      	ldr	r3, [r3, #0]
   810f0:	689b      	ldr	r3, [r3, #8]
   810f2:	681a      	ldr	r2, [r3, #0]
   810f4:	3201      	adds	r2, #1
   810f6:	601a      	str	r2, [r3, #0]
   810f8:	4628      	mov	r0, r5
   810fa:	4b32      	ldr	r3, [pc, #200]	; (811c4 <UnityTestResultsBegin+0x12c>)
   810fc:	4798      	blx	r3
   810fe:	4b2f      	ldr	r3, [pc, #188]	; (811bc <UnityTestResultsBegin+0x124>)
   81100:	6818      	ldr	r0, [r3, #0]
   81102:	6882      	ldr	r2, [r0, #8]
   81104:	6893      	ldr	r3, [r2, #8]
   81106:	3b01      	subs	r3, #1
   81108:	6093      	str	r3, [r2, #8]
   8110a:	2b00      	cmp	r3, #0
   8110c:	da19      	bge.n	81142 <UnityTestResultsBegin+0xaa>
   8110e:	6882      	ldr	r2, [r0, #8]
   81110:	6891      	ldr	r1, [r2, #8]
   81112:	6993      	ldr	r3, [r2, #24]
   81114:	4299      	cmp	r1, r3
   81116:	db10      	blt.n	8113a <UnityTestResultsBegin+0xa2>
   81118:	6813      	ldr	r3, [r2, #0]
   8111a:	223a      	movs	r2, #58	; 0x3a
   8111c:	701a      	strb	r2, [r3, #0]
   8111e:	4b27      	ldr	r3, [pc, #156]	; (811bc <UnityTestResultsBegin+0x124>)
   81120:	6818      	ldr	r0, [r3, #0]
   81122:	6882      	ldr	r2, [r0, #8]
   81124:	6813      	ldr	r3, [r2, #0]
   81126:	7819      	ldrb	r1, [r3, #0]
   81128:	290a      	cmp	r1, #10
   8112a:	d002      	beq.n	81132 <UnityTestResultsBegin+0x9a>
   8112c:	3301      	adds	r3, #1
   8112e:	6013      	str	r3, [r2, #0]
   81130:	e011      	b.n	81156 <UnityTestResultsBegin+0xbe>
   81132:	210a      	movs	r1, #10
   81134:	4b22      	ldr	r3, [pc, #136]	; (811c0 <UnityTestResultsBegin+0x128>)
   81136:	4798      	blx	r3
   81138:	e00d      	b.n	81156 <UnityTestResultsBegin+0xbe>
   8113a:	213a      	movs	r1, #58	; 0x3a
   8113c:	4b20      	ldr	r3, [pc, #128]	; (811c0 <UnityTestResultsBegin+0x128>)
   8113e:	4798      	blx	r3
   81140:	e009      	b.n	81156 <UnityTestResultsBegin+0xbe>
   81142:	6883      	ldr	r3, [r0, #8]
   81144:	681b      	ldr	r3, [r3, #0]
   81146:	223a      	movs	r2, #58	; 0x3a
   81148:	701a      	strb	r2, [r3, #0]
   8114a:	4b1c      	ldr	r3, [pc, #112]	; (811bc <UnityTestResultsBegin+0x124>)
   8114c:	681b      	ldr	r3, [r3, #0]
   8114e:	689b      	ldr	r3, [r3, #8]
   81150:	681a      	ldr	r2, [r3, #0]
   81152:	3201      	adds	r2, #1
   81154:	601a      	str	r2, [r3, #0]
   81156:	4b1c      	ldr	r3, [pc, #112]	; (811c8 <UnityTestResultsBegin+0x130>)
   81158:	6858      	ldr	r0, [r3, #4]
   8115a:	4b17      	ldr	r3, [pc, #92]	; (811b8 <UnityTestResultsBegin+0x120>)
   8115c:	4798      	blx	r3
   8115e:	4b17      	ldr	r3, [pc, #92]	; (811bc <UnityTestResultsBegin+0x124>)
   81160:	6818      	ldr	r0, [r3, #0]
   81162:	6882      	ldr	r2, [r0, #8]
   81164:	6893      	ldr	r3, [r2, #8]
   81166:	3b01      	subs	r3, #1
   81168:	6093      	str	r3, [r2, #8]
   8116a:	2b00      	cmp	r3, #0
   8116c:	da19      	bge.n	811a2 <UnityTestResultsBegin+0x10a>
   8116e:	6882      	ldr	r2, [r0, #8]
   81170:	6891      	ldr	r1, [r2, #8]
   81172:	6993      	ldr	r3, [r2, #24]
   81174:	4299      	cmp	r1, r3
   81176:	db10      	blt.n	8119a <UnityTestResultsBegin+0x102>
   81178:	6813      	ldr	r3, [r2, #0]
   8117a:	223a      	movs	r2, #58	; 0x3a
   8117c:	701a      	strb	r2, [r3, #0]
   8117e:	4b0f      	ldr	r3, [pc, #60]	; (811bc <UnityTestResultsBegin+0x124>)
   81180:	6818      	ldr	r0, [r3, #0]
   81182:	6882      	ldr	r2, [r0, #8]
   81184:	6813      	ldr	r3, [r2, #0]
   81186:	7819      	ldrb	r1, [r3, #0]
   81188:	290a      	cmp	r1, #10
   8118a:	d002      	beq.n	81192 <UnityTestResultsBegin+0xfa>
   8118c:	3301      	adds	r3, #1
   8118e:	6013      	str	r3, [r2, #0]
   81190:	bd38      	pop	{r3, r4, r5, pc}
   81192:	210a      	movs	r1, #10
   81194:	4b0a      	ldr	r3, [pc, #40]	; (811c0 <UnityTestResultsBegin+0x128>)
   81196:	4798      	blx	r3
   81198:	bd38      	pop	{r3, r4, r5, pc}
   8119a:	213a      	movs	r1, #58	; 0x3a
   8119c:	4b08      	ldr	r3, [pc, #32]	; (811c0 <UnityTestResultsBegin+0x128>)
   8119e:	4798      	blx	r3
   811a0:	bd38      	pop	{r3, r4, r5, pc}
   811a2:	6883      	ldr	r3, [r0, #8]
   811a4:	681b      	ldr	r3, [r3, #0]
   811a6:	223a      	movs	r2, #58	; 0x3a
   811a8:	701a      	strb	r2, [r3, #0]
   811aa:	4b04      	ldr	r3, [pc, #16]	; (811bc <UnityTestResultsBegin+0x124>)
   811ac:	681b      	ldr	r3, [r3, #0]
   811ae:	689b      	ldr	r3, [r3, #8]
   811b0:	681a      	ldr	r2, [r3, #0]
   811b2:	3201      	adds	r2, #1
   811b4:	601a      	str	r2, [r3, #0]
   811b6:	bd38      	pop	{r3, r4, r5, pc}
   811b8:	00080e6d 	.word	0x00080e6d
   811bc:	20070560 	.word	0x20070560
   811c0:	00082249 	.word	0x00082249
   811c4:	00080a7d 	.word	0x00080a7d
   811c8:	20070afc 	.word	0x20070afc

000811cc <UnityTestResultsFailBegin>:
   811cc:	b508      	push	{r3, lr}
   811ce:	4601      	mov	r1, r0
   811d0:	4b19      	ldr	r3, [pc, #100]	; (81238 <UnityTestResultsFailBegin+0x6c>)
   811d2:	6818      	ldr	r0, [r3, #0]
   811d4:	4b19      	ldr	r3, [pc, #100]	; (8123c <UnityTestResultsFailBegin+0x70>)
   811d6:	4798      	blx	r3
   811d8:	4819      	ldr	r0, [pc, #100]	; (81240 <UnityTestResultsFailBegin+0x74>)
   811da:	4b1a      	ldr	r3, [pc, #104]	; (81244 <UnityTestResultsFailBegin+0x78>)
   811dc:	4798      	blx	r3
   811de:	4b1a      	ldr	r3, [pc, #104]	; (81248 <UnityTestResultsFailBegin+0x7c>)
   811e0:	6818      	ldr	r0, [r3, #0]
   811e2:	6882      	ldr	r2, [r0, #8]
   811e4:	6893      	ldr	r3, [r2, #8]
   811e6:	3b01      	subs	r3, #1
   811e8:	6093      	str	r3, [r2, #8]
   811ea:	2b00      	cmp	r3, #0
   811ec:	da19      	bge.n	81222 <UnityTestResultsFailBegin+0x56>
   811ee:	6882      	ldr	r2, [r0, #8]
   811f0:	6891      	ldr	r1, [r2, #8]
   811f2:	6993      	ldr	r3, [r2, #24]
   811f4:	4299      	cmp	r1, r3
   811f6:	db10      	blt.n	8121a <UnityTestResultsFailBegin+0x4e>
   811f8:	6813      	ldr	r3, [r2, #0]
   811fa:	223a      	movs	r2, #58	; 0x3a
   811fc:	701a      	strb	r2, [r3, #0]
   811fe:	4b12      	ldr	r3, [pc, #72]	; (81248 <UnityTestResultsFailBegin+0x7c>)
   81200:	6818      	ldr	r0, [r3, #0]
   81202:	6882      	ldr	r2, [r0, #8]
   81204:	6813      	ldr	r3, [r2, #0]
   81206:	7819      	ldrb	r1, [r3, #0]
   81208:	290a      	cmp	r1, #10
   8120a:	d002      	beq.n	81212 <UnityTestResultsFailBegin+0x46>
   8120c:	3301      	adds	r3, #1
   8120e:	6013      	str	r3, [r2, #0]
   81210:	bd08      	pop	{r3, pc}
   81212:	210a      	movs	r1, #10
   81214:	4b0d      	ldr	r3, [pc, #52]	; (8124c <UnityTestResultsFailBegin+0x80>)
   81216:	4798      	blx	r3
   81218:	bd08      	pop	{r3, pc}
   8121a:	213a      	movs	r1, #58	; 0x3a
   8121c:	4b0b      	ldr	r3, [pc, #44]	; (8124c <UnityTestResultsFailBegin+0x80>)
   8121e:	4798      	blx	r3
   81220:	bd08      	pop	{r3, pc}
   81222:	6883      	ldr	r3, [r0, #8]
   81224:	681b      	ldr	r3, [r3, #0]
   81226:	223a      	movs	r2, #58	; 0x3a
   81228:	701a      	strb	r2, [r3, #0]
   8122a:	4b07      	ldr	r3, [pc, #28]	; (81248 <UnityTestResultsFailBegin+0x7c>)
   8122c:	681b      	ldr	r3, [r3, #0]
   8122e:	689b      	ldr	r3, [r3, #8]
   81230:	681a      	ldr	r2, [r3, #0]
   81232:	3201      	adds	r2, #1
   81234:	601a      	str	r2, [r3, #0]
   81236:	bd08      	pop	{r3, pc}
   81238:	20070afc 	.word	0x20070afc
   8123c:	00081099 	.word	0x00081099
   81240:	000834b0 	.word	0x000834b0
   81244:	00080e6d 	.word	0x00080e6d
   81248:	20070560 	.word	0x20070560
   8124c:	00082249 	.word	0x00082249

00081250 <UnityAddMsgIfSpecified>:
   81250:	b538      	push	{r3, r4, r5, lr}
   81252:	4605      	mov	r5, r0
   81254:	b120      	cbz	r0, 81260 <UnityAddMsgIfSpecified+0x10>
   81256:	4803      	ldr	r0, [pc, #12]	; (81264 <UnityAddMsgIfSpecified+0x14>)
   81258:	4c03      	ldr	r4, [pc, #12]	; (81268 <UnityAddMsgIfSpecified+0x18>)
   8125a:	47a0      	blx	r4
   8125c:	4628      	mov	r0, r5
   8125e:	47a0      	blx	r4
   81260:	bd38      	pop	{r3, r4, r5, pc}
   81262:	bf00      	nop
   81264:	000834a4 	.word	0x000834a4
   81268:	00080e6d 	.word	0x00080e6d

0008126c <UnityPrintNumberByStyle>:
   8126c:	b508      	push	{r3, lr}
   8126e:	f011 0f10 	tst.w	r1, #16
   81272:	d002      	beq.n	8127a <UnityPrintNumberByStyle+0xe>
   81274:	4b0a      	ldr	r3, [pc, #40]	; (812a0 <UnityPrintNumberByStyle+0x34>)
   81276:	4798      	blx	r3
   81278:	bd08      	pop	{r3, pc}
   8127a:	f011 0f20 	tst.w	r1, #32
   8127e:	d009      	beq.n	81294 <UnityPrintNumberByStyle+0x28>
   81280:	f001 010f 	and.w	r1, r1, #15
   81284:	3901      	subs	r1, #1
   81286:	4b07      	ldr	r3, [pc, #28]	; (812a4 <UnityPrintNumberByStyle+0x38>)
   81288:	f853 3021 	ldr.w	r3, [r3, r1, lsl #2]
   8128c:	4018      	ands	r0, r3
   8128e:	4b06      	ldr	r3, [pc, #24]	; (812a8 <UnityPrintNumberByStyle+0x3c>)
   81290:	4798      	blx	r3
   81292:	bd08      	pop	{r3, pc}
   81294:	f001 010f 	and.w	r1, r1, #15
   81298:	0049      	lsls	r1, r1, #1
   8129a:	4b04      	ldr	r3, [pc, #16]	; (812ac <UnityPrintNumberByStyle+0x40>)
   8129c:	4798      	blx	r3
   8129e:	bd08      	pop	{r3, pc}
   812a0:	00080a7d 	.word	0x00080a7d
   812a4:	00083484 	.word	0x00083484
   812a8:	00080c19 	.word	0x00080c19
   812ac:	00080ce1 	.word	0x00080ce1

000812b0 <UnityPrintMask>:
   812b0:	e92d 47f0 	stmdb	sp!, {r4, r5, r6, r7, r8, r9, sl, lr}
   812b4:	4607      	mov	r7, r0
   812b6:	4688      	mov	r8, r1
   812b8:	2520      	movs	r5, #32
   812ba:	f04f 4400 	mov.w	r4, #2147483648	; 0x80000000
   812be:	4e43      	ldr	r6, [pc, #268]	; (813cc <UnityPrintMask+0x11c>)
   812c0:	f04f 0958 	mov.w	r9, #88	; 0x58
   812c4:	f8df a108 	ldr.w	sl, [pc, #264]	; 813d0 <UnityPrintMask+0x120>
   812c8:	423c      	tst	r4, r7
   812ca:	d052      	beq.n	81372 <UnityPrintMask+0xc2>
   812cc:	ea14 0f08 	tst.w	r4, r8
   812d0:	d027      	beq.n	81322 <UnityPrintMask+0x72>
   812d2:	6830      	ldr	r0, [r6, #0]
   812d4:	6882      	ldr	r2, [r0, #8]
   812d6:	6893      	ldr	r3, [r2, #8]
   812d8:	3b01      	subs	r3, #1
   812da:	6093      	str	r3, [r2, #8]
   812dc:	2b00      	cmp	r3, #0
   812de:	da16      	bge.n	8130e <UnityPrintMask+0x5e>
   812e0:	6882      	ldr	r2, [r0, #8]
   812e2:	6891      	ldr	r1, [r2, #8]
   812e4:	6993      	ldr	r3, [r2, #24]
   812e6:	4299      	cmp	r1, r3
   812e8:	db0e      	blt.n	81308 <UnityPrintMask+0x58>
   812ea:	6813      	ldr	r3, [r2, #0]
   812ec:	2231      	movs	r2, #49	; 0x31
   812ee:	701a      	strb	r2, [r3, #0]
   812f0:	6830      	ldr	r0, [r6, #0]
   812f2:	6882      	ldr	r2, [r0, #8]
   812f4:	6813      	ldr	r3, [r2, #0]
   812f6:	7819      	ldrb	r1, [r3, #0]
   812f8:	290a      	cmp	r1, #10
   812fa:	d002      	beq.n	81302 <UnityPrintMask+0x52>
   812fc:	3301      	adds	r3, #1
   812fe:	6013      	str	r3, [r2, #0]
   81300:	e05e      	b.n	813c0 <UnityPrintMask+0x110>
   81302:	210a      	movs	r1, #10
   81304:	47d0      	blx	sl
   81306:	e05b      	b.n	813c0 <UnityPrintMask+0x110>
   81308:	2131      	movs	r1, #49	; 0x31
   8130a:	47d0      	blx	sl
   8130c:	e058      	b.n	813c0 <UnityPrintMask+0x110>
   8130e:	6883      	ldr	r3, [r0, #8]
   81310:	681b      	ldr	r3, [r3, #0]
   81312:	2231      	movs	r2, #49	; 0x31
   81314:	701a      	strb	r2, [r3, #0]
   81316:	6833      	ldr	r3, [r6, #0]
   81318:	689b      	ldr	r3, [r3, #8]
   8131a:	681a      	ldr	r2, [r3, #0]
   8131c:	3201      	adds	r2, #1
   8131e:	601a      	str	r2, [r3, #0]
   81320:	e04e      	b.n	813c0 <UnityPrintMask+0x110>
   81322:	6830      	ldr	r0, [r6, #0]
   81324:	6882      	ldr	r2, [r0, #8]
   81326:	6893      	ldr	r3, [r2, #8]
   81328:	3b01      	subs	r3, #1
   8132a:	6093      	str	r3, [r2, #8]
   8132c:	2b00      	cmp	r3, #0
   8132e:	da16      	bge.n	8135e <UnityPrintMask+0xae>
   81330:	6882      	ldr	r2, [r0, #8]
   81332:	6891      	ldr	r1, [r2, #8]
   81334:	6993      	ldr	r3, [r2, #24]
   81336:	4299      	cmp	r1, r3
   81338:	db0e      	blt.n	81358 <UnityPrintMask+0xa8>
   8133a:	6813      	ldr	r3, [r2, #0]
   8133c:	2230      	movs	r2, #48	; 0x30
   8133e:	701a      	strb	r2, [r3, #0]
   81340:	6830      	ldr	r0, [r6, #0]
   81342:	6882      	ldr	r2, [r0, #8]
   81344:	6813      	ldr	r3, [r2, #0]
   81346:	7819      	ldrb	r1, [r3, #0]
   81348:	290a      	cmp	r1, #10
   8134a:	d002      	beq.n	81352 <UnityPrintMask+0xa2>
   8134c:	3301      	adds	r3, #1
   8134e:	6013      	str	r3, [r2, #0]
   81350:	e036      	b.n	813c0 <UnityPrintMask+0x110>
   81352:	210a      	movs	r1, #10
   81354:	47d0      	blx	sl
   81356:	e033      	b.n	813c0 <UnityPrintMask+0x110>
   81358:	2130      	movs	r1, #48	; 0x30
   8135a:	47d0      	blx	sl
   8135c:	e030      	b.n	813c0 <UnityPrintMask+0x110>
   8135e:	6883      	ldr	r3, [r0, #8]
   81360:	681b      	ldr	r3, [r3, #0]
   81362:	2230      	movs	r2, #48	; 0x30
   81364:	701a      	strb	r2, [r3, #0]
   81366:	6833      	ldr	r3, [r6, #0]
   81368:	689b      	ldr	r3, [r3, #8]
   8136a:	681a      	ldr	r2, [r3, #0]
   8136c:	3201      	adds	r2, #1
   8136e:	601a      	str	r2, [r3, #0]
   81370:	e026      	b.n	813c0 <UnityPrintMask+0x110>
   81372:	6830      	ldr	r0, [r6, #0]
   81374:	6882      	ldr	r2, [r0, #8]
   81376:	6893      	ldr	r3, [r2, #8]
   81378:	3b01      	subs	r3, #1
   8137a:	6093      	str	r3, [r2, #8]
   8137c:	2b00      	cmp	r3, #0
   8137e:	da16      	bge.n	813ae <UnityPrintMask+0xfe>
   81380:	6882      	ldr	r2, [r0, #8]
   81382:	6891      	ldr	r1, [r2, #8]
   81384:	6993      	ldr	r3, [r2, #24]
   81386:	4299      	cmp	r1, r3
   81388:	db0e      	blt.n	813a8 <UnityPrintMask+0xf8>
   8138a:	6813      	ldr	r3, [r2, #0]
   8138c:	f883 9000 	strb.w	r9, [r3]
   81390:	6830      	ldr	r0, [r6, #0]
   81392:	6882      	ldr	r2, [r0, #8]
   81394:	6813      	ldr	r3, [r2, #0]
   81396:	7819      	ldrb	r1, [r3, #0]
   81398:	290a      	cmp	r1, #10
   8139a:	d002      	beq.n	813a2 <UnityPrintMask+0xf2>
   8139c:	3301      	adds	r3, #1
   8139e:	6013      	str	r3, [r2, #0]
   813a0:	e00e      	b.n	813c0 <UnityPrintMask+0x110>
   813a2:	210a      	movs	r1, #10
   813a4:	47d0      	blx	sl
   813a6:	e00b      	b.n	813c0 <UnityPrintMask+0x110>
   813a8:	4649      	mov	r1, r9
   813aa:	47d0      	blx	sl
   813ac:	e008      	b.n	813c0 <UnityPrintMask+0x110>
   813ae:	6883      	ldr	r3, [r0, #8]
   813b0:	681b      	ldr	r3, [r3, #0]
   813b2:	f883 9000 	strb.w	r9, [r3]
   813b6:	6833      	ldr	r3, [r6, #0]
   813b8:	689b      	ldr	r3, [r3, #8]
   813ba:	681a      	ldr	r2, [r3, #0]
   813bc:	3201      	adds	r2, #1
   813be:	601a      	str	r2, [r3, #0]
   813c0:	0864      	lsrs	r4, r4, #1
   813c2:	3d01      	subs	r5, #1
   813c4:	d180      	bne.n	812c8 <UnityPrintMask+0x18>
   813c6:	e8bd 87f0 	ldmia.w	sp!, {r4, r5, r6, r7, r8, r9, sl, pc}
   813ca:	bf00      	nop
   813cc:	20070560 	.word	0x20070560
   813d0:	00082249 	.word	0x00082249

000813d4 <UnityPrintFail>:
   813d4:	b508      	push	{r3, lr}
   813d6:	4802      	ldr	r0, [pc, #8]	; (813e0 <UnityPrintFail+0xc>)
   813d8:	4b02      	ldr	r3, [pc, #8]	; (813e4 <UnityPrintFail+0x10>)
   813da:	4798      	blx	r3
   813dc:	bd08      	pop	{r3, pc}
   813de:	bf00      	nop
   813e0:	000834b0 	.word	0x000834b0
   813e4:	00080e6d 	.word	0x00080e6d

000813e8 <UnityPrintOk>:
   813e8:	b508      	push	{r3, lr}
   813ea:	4802      	ldr	r0, [pc, #8]	; (813f4 <UnityPrintOk+0xc>)
   813ec:	4b02      	ldr	r3, [pc, #8]	; (813f8 <UnityPrintOk+0x10>)
   813ee:	4798      	blx	r3
   813f0:	bd08      	pop	{r3, pc}
   813f2:	bf00      	nop
   813f4:	000834a0 	.word	0x000834a0
   813f8:	00080e6d 	.word	0x00080e6d

000813fc <UnityConcludeTest>:
   813fc:	b508      	push	{r3, lr}
   813fe:	4b24      	ldr	r3, [pc, #144]	; (81490 <UnityConcludeTest+0x94>)
   81400:	69db      	ldr	r3, [r3, #28]
   81402:	b123      	cbz	r3, 8140e <UnityConcludeTest+0x12>
   81404:	4b22      	ldr	r3, [pc, #136]	; (81490 <UnityConcludeTest+0x94>)
   81406:	695a      	ldr	r2, [r3, #20]
   81408:	3201      	adds	r2, #1
   8140a:	615a      	str	r2, [r3, #20]
   8140c:	e00f      	b.n	8142e <UnityConcludeTest+0x32>
   8140e:	4b20      	ldr	r3, [pc, #128]	; (81490 <UnityConcludeTest+0x94>)
   81410:	699b      	ldr	r3, [r3, #24]
   81412:	b943      	cbnz	r3, 81426 <UnityConcludeTest+0x2a>
   81414:	4b1e      	ldr	r3, [pc, #120]	; (81490 <UnityConcludeTest+0x94>)
   81416:	6818      	ldr	r0, [r3, #0]
   81418:	6899      	ldr	r1, [r3, #8]
   8141a:	4b1e      	ldr	r3, [pc, #120]	; (81494 <UnityConcludeTest+0x98>)
   8141c:	4798      	blx	r3
   8141e:	481e      	ldr	r0, [pc, #120]	; (81498 <UnityConcludeTest+0x9c>)
   81420:	4b1e      	ldr	r3, [pc, #120]	; (8149c <UnityConcludeTest+0xa0>)
   81422:	4798      	blx	r3
   81424:	e003      	b.n	8142e <UnityConcludeTest+0x32>
   81426:	4b1a      	ldr	r3, [pc, #104]	; (81490 <UnityConcludeTest+0x94>)
   81428:	691a      	ldr	r2, [r3, #16]
   8142a:	3201      	adds	r2, #1
   8142c:	611a      	str	r2, [r3, #16]
   8142e:	4b18      	ldr	r3, [pc, #96]	; (81490 <UnityConcludeTest+0x94>)
   81430:	2200      	movs	r2, #0
   81432:	619a      	str	r2, [r3, #24]
   81434:	61da      	str	r2, [r3, #28]
   81436:	4b1a      	ldr	r3, [pc, #104]	; (814a0 <UnityConcludeTest+0xa4>)
   81438:	6818      	ldr	r0, [r3, #0]
   8143a:	6882      	ldr	r2, [r0, #8]
   8143c:	6893      	ldr	r3, [r2, #8]
   8143e:	3b01      	subs	r3, #1
   81440:	6093      	str	r3, [r2, #8]
   81442:	2b00      	cmp	r3, #0
   81444:	da19      	bge.n	8147a <UnityConcludeTest+0x7e>
   81446:	6882      	ldr	r2, [r0, #8]
   81448:	6891      	ldr	r1, [r2, #8]
   8144a:	6993      	ldr	r3, [r2, #24]
   8144c:	4299      	cmp	r1, r3
   8144e:	db10      	blt.n	81472 <UnityConcludeTest+0x76>
   81450:	6813      	ldr	r3, [r2, #0]
   81452:	220a      	movs	r2, #10
   81454:	701a      	strb	r2, [r3, #0]
   81456:	4b12      	ldr	r3, [pc, #72]	; (814a0 <UnityConcludeTest+0xa4>)
   81458:	6818      	ldr	r0, [r3, #0]
   8145a:	6882      	ldr	r2, [r0, #8]
   8145c:	6813      	ldr	r3, [r2, #0]
   8145e:	7819      	ldrb	r1, [r3, #0]
   81460:	290a      	cmp	r1, #10
   81462:	d002      	beq.n	8146a <UnityConcludeTest+0x6e>
   81464:	3301      	adds	r3, #1
   81466:	6013      	str	r3, [r2, #0]
   81468:	bd08      	pop	{r3, pc}
   8146a:	210a      	movs	r1, #10
   8146c:	4b0d      	ldr	r3, [pc, #52]	; (814a4 <UnityConcludeTest+0xa8>)
   8146e:	4798      	blx	r3
   81470:	bd08      	pop	{r3, pc}
   81472:	210a      	movs	r1, #10
   81474:	4b0b      	ldr	r3, [pc, #44]	; (814a4 <UnityConcludeTest+0xa8>)
   81476:	4798      	blx	r3
   81478:	bd08      	pop	{r3, pc}
   8147a:	6883      	ldr	r3, [r0, #8]
   8147c:	681b      	ldr	r3, [r3, #0]
   8147e:	220a      	movs	r2, #10
   81480:	701a      	strb	r2, [r3, #0]
   81482:	4b07      	ldr	r3, [pc, #28]	; (814a0 <UnityConcludeTest+0xa4>)
   81484:	681b      	ldr	r3, [r3, #0]
   81486:	689b      	ldr	r3, [r3, #8]
   81488:	681a      	ldr	r2, [r3, #0]
   8148a:	3201      	adds	r2, #1
   8148c:	601a      	str	r2, [r3, #0]
   8148e:	bd08      	pop	{r3, pc}
   81490:	20070afc 	.word	0x20070afc
   81494:	00081099 	.word	0x00081099
   81498:	000834fc 	.word	0x000834fc
   8149c:	00080e6d 	.word	0x00080e6d
   814a0:	20070560 	.word	0x20070560
   814a4:	00082249 	.word	0x00082249

000814a8 <UnityAssertBits>:
   814a8:	e92d 43f8 	stmdb	sp!, {r3, r4, r5, r6, r7, r8, r9, lr}
   814ac:	4605      	mov	r5, r0
   814ae:	460f      	mov	r7, r1
   814b0:	4616      	mov	r6, r2
   814b2:	4698      	mov	r8, r3
   814b4:	4c12      	ldr	r4, [pc, #72]	; (81500 <UnityAssertBits+0x58>)
   814b6:	69a4      	ldr	r4, [r4, #24]
   814b8:	b9fc      	cbnz	r4, 814fa <UnityAssertBits+0x52>
   814ba:	4a11      	ldr	r2, [pc, #68]	; (81500 <UnityAssertBits+0x58>)
   814bc:	69d2      	ldr	r2, [r2, #28]
   814be:	b9e2      	cbnz	r2, 814fa <UnityAssertBits+0x52>
   814c0:	ea81 0306 	eor.w	r3, r1, r6
   814c4:	4203      	tst	r3, r0
   814c6:	d018      	beq.n	814fa <UnityAssertBits+0x52>
   814c8:	9808      	ldr	r0, [sp, #32]
   814ca:	4b0e      	ldr	r3, [pc, #56]	; (81504 <UnityAssertBits+0x5c>)
   814cc:	4798      	blx	r3
   814ce:	480e      	ldr	r0, [pc, #56]	; (81508 <UnityAssertBits+0x60>)
   814d0:	f8df 9048 	ldr.w	r9, [pc, #72]	; 8151c <UnityAssertBits+0x74>
   814d4:	47c8      	blx	r9
   814d6:	4628      	mov	r0, r5
   814d8:	4639      	mov	r1, r7
   814da:	4c0c      	ldr	r4, [pc, #48]	; (8150c <UnityAssertBits+0x64>)
   814dc:	47a0      	blx	r4
   814de:	480c      	ldr	r0, [pc, #48]	; (81510 <UnityAssertBits+0x68>)
   814e0:	47c8      	blx	r9
   814e2:	4628      	mov	r0, r5
   814e4:	4631      	mov	r1, r6
   814e6:	47a0      	blx	r4
   814e8:	4640      	mov	r0, r8
   814ea:	4b0a      	ldr	r3, [pc, #40]	; (81514 <UnityAssertBits+0x6c>)
   814ec:	4798      	blx	r3
   814ee:	4804      	ldr	r0, [pc, #16]	; (81500 <UnityAssertBits+0x58>)
   814f0:	2101      	movs	r1, #1
   814f2:	6181      	str	r1, [r0, #24]
   814f4:	3020      	adds	r0, #32
   814f6:	4b08      	ldr	r3, [pc, #32]	; (81518 <UnityAssertBits+0x70>)
   814f8:	4798      	blx	r3
   814fa:	e8bd 83f8 	ldmia.w	sp!, {r3, r4, r5, r6, r7, r8, r9, pc}
   814fe:	bf00      	nop
   81500:	20070afc 	.word	0x20070afc
   81504:	000811cd 	.word	0x000811cd
   81508:	000834b8 	.word	0x000834b8
   8150c:	000812b1 	.word	0x000812b1
   81510:	000834a8 	.word	0x000834a8
   81514:	00081251 	.word	0x00081251
   81518:	00082139 	.word	0x00082139
   8151c:	00080e6d 	.word	0x00080e6d

00081520 <UnityAssertNumbersWithin>:
   81520:	e92d 47f0 	stmdb	sp!, {r4, r5, r6, r7, r8, r9, sl, lr}
   81524:	4680      	mov	r8, r0
   81526:	460e      	mov	r6, r1
   81528:	4615      	mov	r5, r2
   8152a:	4699      	mov	r9, r3
   8152c:	f89d 7024 	ldrb.w	r7, [sp, #36]	; 0x24
   81530:	4c25      	ldr	r4, [pc, #148]	; (815c8 <UnityAssertNumbersWithin+0xa8>)
   81532:	69a4      	ldr	r4, [r4, #24]
   81534:	2c00      	cmp	r4, #0
   81536:	d144      	bne.n	815c2 <UnityAssertNumbersWithin+0xa2>
   81538:	4b23      	ldr	r3, [pc, #140]	; (815c8 <UnityAssertNumbersWithin+0xa8>)
   8153a:	69da      	ldr	r2, [r3, #28]
   8153c:	2a00      	cmp	r2, #0
   8153e:	d140      	bne.n	815c2 <UnityAssertNumbersWithin+0xa2>
   81540:	f017 0f10 	tst.w	r7, #16
   81544:	d010      	beq.n	81568 <UnityAssertNumbersWithin+0x48>
   81546:	428d      	cmp	r5, r1
   81548:	dd06      	ble.n	81558 <UnityAssertNumbersWithin+0x38>
   8154a:	1a6a      	subs	r2, r5, r1
   8154c:	4282      	cmp	r2, r0
   8154e:	bfd4      	ite	le
   81550:	2200      	movle	r2, #0
   81552:	2201      	movgt	r2, #1
   81554:	619a      	str	r2, [r3, #24]
   81556:	e013      	b.n	81580 <UnityAssertNumbersWithin+0x60>
   81558:	1b4a      	subs	r2, r1, r5
   8155a:	4282      	cmp	r2, r0
   8155c:	bfd4      	ite	le
   8155e:	2200      	movle	r2, #0
   81560:	2201      	movgt	r2, #1
   81562:	4b19      	ldr	r3, [pc, #100]	; (815c8 <UnityAssertNumbersWithin+0xa8>)
   81564:	619a      	str	r2, [r3, #24]
   81566:	e00b      	b.n	81580 <UnityAssertNumbersWithin+0x60>
   81568:	428d      	cmp	r5, r1
   8156a:	bf8c      	ite	hi
   8156c:	ebc1 0205 	rsbhi	r2, r1, r5
   81570:	ebc5 0201 	rsbls	r2, r5, r1
   81574:	4282      	cmp	r2, r0
   81576:	bf94      	ite	ls
   81578:	2200      	movls	r2, #0
   8157a:	2201      	movhi	r2, #1
   8157c:	4b12      	ldr	r3, [pc, #72]	; (815c8 <UnityAssertNumbersWithin+0xa8>)
   8157e:	619a      	str	r2, [r3, #24]
   81580:	4b11      	ldr	r3, [pc, #68]	; (815c8 <UnityAssertNumbersWithin+0xa8>)
   81582:	699b      	ldr	r3, [r3, #24]
   81584:	b1eb      	cbz	r3, 815c2 <UnityAssertNumbersWithin+0xa2>
   81586:	9808      	ldr	r0, [sp, #32]
   81588:	4b10      	ldr	r3, [pc, #64]	; (815cc <UnityAssertNumbersWithin+0xac>)
   8158a:	4798      	blx	r3
   8158c:	4810      	ldr	r0, [pc, #64]	; (815d0 <UnityAssertNumbersWithin+0xb0>)
   8158e:	f8df a058 	ldr.w	sl, [pc, #88]	; 815e8 <UnityAssertNumbersWithin+0xc8>
   81592:	47d0      	blx	sl
   81594:	4640      	mov	r0, r8
   81596:	4639      	mov	r1, r7
   81598:	4c0e      	ldr	r4, [pc, #56]	; (815d4 <UnityAssertNumbersWithin+0xb4>)
   8159a:	47a0      	blx	r4
   8159c:	480e      	ldr	r0, [pc, #56]	; (815d8 <UnityAssertNumbersWithin+0xb8>)
   8159e:	47d0      	blx	sl
   815a0:	4630      	mov	r0, r6
   815a2:	4639      	mov	r1, r7
   815a4:	47a0      	blx	r4
   815a6:	480d      	ldr	r0, [pc, #52]	; (815dc <UnityAssertNumbersWithin+0xbc>)
   815a8:	47d0      	blx	sl
   815aa:	4628      	mov	r0, r5
   815ac:	4639      	mov	r1, r7
   815ae:	47a0      	blx	r4
   815b0:	4648      	mov	r0, r9
   815b2:	4b0b      	ldr	r3, [pc, #44]	; (815e0 <UnityAssertNumbersWithin+0xc0>)
   815b4:	4798      	blx	r3
   815b6:	4804      	ldr	r0, [pc, #16]	; (815c8 <UnityAssertNumbersWithin+0xa8>)
   815b8:	2101      	movs	r1, #1
   815ba:	6181      	str	r1, [r0, #24]
   815bc:	3020      	adds	r0, #32
   815be:	4b09      	ldr	r3, [pc, #36]	; (815e4 <UnityAssertNumbersWithin+0xc4>)
   815c0:	4798      	blx	r3
   815c2:	e8bd 87f0 	ldmia.w	sp!, {r4, r5, r6, r7, r8, r9, sl, pc}
   815c6:	bf00      	nop
   815c8:	20070afc 	.word	0x20070afc
   815cc:	000811cd 	.word	0x000811cd
   815d0:	00083504 	.word	0x00083504
   815d4:	0008126d 	.word	0x0008126d
   815d8:	000834b8 	.word	0x000834b8
   815dc:	000834a8 	.word	0x000834a8
   815e0:	00081251 	.word	0x00081251
   815e4:	00082139 	.word	0x00082139
   815e8:	00080e6d 	.word	0x00080e6d

000815ec <UnityFail>:
   815ec:	b510      	push	{r4, lr}
   815ee:	4604      	mov	r4, r0
   815f0:	4b3a      	ldr	r3, [pc, #232]	; (816dc <UnityFail+0xf0>)
   815f2:	699b      	ldr	r3, [r3, #24]
   815f4:	2b00      	cmp	r3, #0
   815f6:	d16f      	bne.n	816d8 <UnityFail+0xec>
   815f8:	4b38      	ldr	r3, [pc, #224]	; (816dc <UnityFail+0xf0>)
   815fa:	69db      	ldr	r3, [r3, #28]
   815fc:	2b00      	cmp	r3, #0
   815fe:	d16b      	bne.n	816d8 <UnityFail+0xec>
   81600:	4b36      	ldr	r3, [pc, #216]	; (816dc <UnityFail+0xf0>)
   81602:	6818      	ldr	r0, [r3, #0]
   81604:	4b36      	ldr	r3, [pc, #216]	; (816e0 <UnityFail+0xf4>)
   81606:	4798      	blx	r3
   81608:	4b36      	ldr	r3, [pc, #216]	; (816e4 <UnityFail+0xf8>)
   8160a:	4798      	blx	r3
   8160c:	2c00      	cmp	r4, #0
   8160e:	d05d      	beq.n	816cc <UnityFail+0xe0>
   81610:	4b35      	ldr	r3, [pc, #212]	; (816e8 <UnityFail+0xfc>)
   81612:	6818      	ldr	r0, [r3, #0]
   81614:	6882      	ldr	r2, [r0, #8]
   81616:	6893      	ldr	r3, [r2, #8]
   81618:	3b01      	subs	r3, #1
   8161a:	6093      	str	r3, [r2, #8]
   8161c:	2b00      	cmp	r3, #0
   8161e:	da19      	bge.n	81654 <UnityFail+0x68>
   81620:	6882      	ldr	r2, [r0, #8]
   81622:	6891      	ldr	r1, [r2, #8]
   81624:	6993      	ldr	r3, [r2, #24]
   81626:	4299      	cmp	r1, r3
   81628:	db10      	blt.n	8164c <UnityFail+0x60>
   8162a:	6813      	ldr	r3, [r2, #0]
   8162c:	223a      	movs	r2, #58	; 0x3a
   8162e:	701a      	strb	r2, [r3, #0]
   81630:	4b2d      	ldr	r3, [pc, #180]	; (816e8 <UnityFail+0xfc>)
   81632:	6818      	ldr	r0, [r3, #0]
   81634:	6882      	ldr	r2, [r0, #8]
   81636:	6813      	ldr	r3, [r2, #0]
   81638:	7819      	ldrb	r1, [r3, #0]
   8163a:	290a      	cmp	r1, #10
   8163c:	d002      	beq.n	81644 <UnityFail+0x58>
   8163e:	3301      	adds	r3, #1
   81640:	6013      	str	r3, [r2, #0]
   81642:	e011      	b.n	81668 <UnityFail+0x7c>
   81644:	210a      	movs	r1, #10
   81646:	4b29      	ldr	r3, [pc, #164]	; (816ec <UnityFail+0x100>)
   81648:	4798      	blx	r3
   8164a:	e00d      	b.n	81668 <UnityFail+0x7c>
   8164c:	213a      	movs	r1, #58	; 0x3a
   8164e:	4b27      	ldr	r3, [pc, #156]	; (816ec <UnityFail+0x100>)
   81650:	4798      	blx	r3
   81652:	e009      	b.n	81668 <UnityFail+0x7c>
   81654:	6883      	ldr	r3, [r0, #8]
   81656:	681b      	ldr	r3, [r3, #0]
   81658:	223a      	movs	r2, #58	; 0x3a
   8165a:	701a      	strb	r2, [r3, #0]
   8165c:	4b22      	ldr	r3, [pc, #136]	; (816e8 <UnityFail+0xfc>)
   8165e:	681b      	ldr	r3, [r3, #0]
   81660:	689b      	ldr	r3, [r3, #8]
   81662:	681a      	ldr	r2, [r3, #0]
   81664:	3201      	adds	r2, #1
   81666:	601a      	str	r2, [r3, #0]
   81668:	7823      	ldrb	r3, [r4, #0]
   8166a:	2b20      	cmp	r3, #32
   8166c:	d02b      	beq.n	816c6 <UnityFail+0xda>
   8166e:	4b1e      	ldr	r3, [pc, #120]	; (816e8 <UnityFail+0xfc>)
   81670:	6818      	ldr	r0, [r3, #0]
   81672:	6882      	ldr	r2, [r0, #8]
   81674:	6893      	ldr	r3, [r2, #8]
   81676:	3b01      	subs	r3, #1
   81678:	6093      	str	r3, [r2, #8]
   8167a:	2b00      	cmp	r3, #0
   8167c:	da19      	bge.n	816b2 <UnityFail+0xc6>
   8167e:	6882      	ldr	r2, [r0, #8]
   81680:	6891      	ldr	r1, [r2, #8]
   81682:	6993      	ldr	r3, [r2, #24]
   81684:	4299      	cmp	r1, r3
   81686:	db10      	blt.n	816aa <UnityFail+0xbe>
   81688:	6813      	ldr	r3, [r2, #0]
   8168a:	2220      	movs	r2, #32
   8168c:	701a      	strb	r2, [r3, #0]
   8168e:	4b16      	ldr	r3, [pc, #88]	; (816e8 <UnityFail+0xfc>)
   81690:	6818      	ldr	r0, [r3, #0]
   81692:	6882      	ldr	r2, [r0, #8]
   81694:	6813      	ldr	r3, [r2, #0]
   81696:	7819      	ldrb	r1, [r3, #0]
   81698:	290a      	cmp	r1, #10
   8169a:	d002      	beq.n	816a2 <UnityFail+0xb6>
   8169c:	3301      	adds	r3, #1
   8169e:	6013      	str	r3, [r2, #0]
   816a0:	e011      	b.n	816c6 <UnityFail+0xda>
   816a2:	210a      	movs	r1, #10
   816a4:	4b11      	ldr	r3, [pc, #68]	; (816ec <UnityFail+0x100>)
   816a6:	4798      	blx	r3
   816a8:	e00d      	b.n	816c6 <UnityFail+0xda>
   816aa:	2120      	movs	r1, #32
   816ac:	4b0f      	ldr	r3, [pc, #60]	; (816ec <UnityFail+0x100>)
   816ae:	4798      	blx	r3
   816b0:	e009      	b.n	816c6 <UnityFail+0xda>
   816b2:	6883      	ldr	r3, [r0, #8]
   816b4:	681b      	ldr	r3, [r3, #0]
   816b6:	2220      	movs	r2, #32
   816b8:	701a      	strb	r2, [r3, #0]
   816ba:	4b0b      	ldr	r3, [pc, #44]	; (816e8 <UnityFail+0xfc>)
   816bc:	681b      	ldr	r3, [r3, #0]
   816be:	689b      	ldr	r3, [r3, #8]
   816c0:	681a      	ldr	r2, [r3, #0]
   816c2:	3201      	adds	r2, #1
   816c4:	601a      	str	r2, [r3, #0]
   816c6:	4620      	mov	r0, r4
   816c8:	4b09      	ldr	r3, [pc, #36]	; (816f0 <UnityFail+0x104>)
   816ca:	4798      	blx	r3
   816cc:	4803      	ldr	r0, [pc, #12]	; (816dc <UnityFail+0xf0>)
   816ce:	2101      	movs	r1, #1
   816d0:	6181      	str	r1, [r0, #24]
   816d2:	3020      	adds	r0, #32
   816d4:	4b07      	ldr	r3, [pc, #28]	; (816f4 <UnityFail+0x108>)
   816d6:	4798      	blx	r3
   816d8:	bd10      	pop	{r4, pc}
   816da:	bf00      	nop
   816dc:	20070afc 	.word	0x20070afc
   816e0:	00081099 	.word	0x00081099
   816e4:	000813d5 	.word	0x000813d5
   816e8:	20070560 	.word	0x20070560
   816ec:	00082249 	.word	0x00082249
   816f0:	00080e6d 	.word	0x00080e6d
   816f4:	00082139 	.word	0x00082139

000816f8 <UnityDefaultTestRun>:
   816f8:	b500      	push	{lr}
   816fa:	b083      	sub	sp, #12
   816fc:	9001      	str	r0, [sp, #4]
   816fe:	480e      	ldr	r0, [pc, #56]	; (81738 <UnityDefaultTestRun+0x40>)
   81700:	6041      	str	r1, [r0, #4]
   81702:	6082      	str	r2, [r0, #8]
   81704:	68c3      	ldr	r3, [r0, #12]
   81706:	3301      	adds	r3, #1
   81708:	60c3      	str	r3, [r0, #12]
   8170a:	3020      	adds	r0, #32
   8170c:	4b0b      	ldr	r3, [pc, #44]	; (8173c <UnityDefaultTestRun+0x44>)
   8170e:	4798      	blx	r3
   81710:	b918      	cbnz	r0, 8171a <UnityDefaultTestRun+0x22>
   81712:	4b0b      	ldr	r3, [pc, #44]	; (81740 <UnityDefaultTestRun+0x48>)
   81714:	4798      	blx	r3
   81716:	9b01      	ldr	r3, [sp, #4]
   81718:	4798      	blx	r3
   8171a:	480a      	ldr	r0, [pc, #40]	; (81744 <UnityDefaultTestRun+0x4c>)
   8171c:	4b07      	ldr	r3, [pc, #28]	; (8173c <UnityDefaultTestRun+0x44>)
   8171e:	4798      	blx	r3
   81720:	b920      	cbnz	r0, 8172c <UnityDefaultTestRun+0x34>
   81722:	4b05      	ldr	r3, [pc, #20]	; (81738 <UnityDefaultTestRun+0x40>)
   81724:	69db      	ldr	r3, [r3, #28]
   81726:	b90b      	cbnz	r3, 8172c <UnityDefaultTestRun+0x34>
   81728:	4b07      	ldr	r3, [pc, #28]	; (81748 <UnityDefaultTestRun+0x50>)
   8172a:	4798      	blx	r3
   8172c:	4b07      	ldr	r3, [pc, #28]	; (8174c <UnityDefaultTestRun+0x54>)
   8172e:	4798      	blx	r3
   81730:	b003      	add	sp, #12
   81732:	f85d fb04 	ldr.w	pc, [sp], #4
   81736:	bf00      	nop
   81738:	20070afc 	.word	0x20070afc
   8173c:	0008212d 	.word	0x0008212d
   81740:	000809c5 	.word	0x000809c5
   81744:	20070b1c 	.word	0x20070b1c
   81748:	000809c9 	.word	0x000809c9
   8174c:	000813fd 	.word	0x000813fd

00081750 <UnityBegin>:
   81750:	4b05      	ldr	r3, [pc, #20]	; (81768 <UnityBegin+0x18>)
   81752:	6018      	str	r0, [r3, #0]
   81754:	2200      	movs	r2, #0
   81756:	605a      	str	r2, [r3, #4]
   81758:	609a      	str	r2, [r3, #8]
   8175a:	60da      	str	r2, [r3, #12]
   8175c:	611a      	str	r2, [r3, #16]
   8175e:	615a      	str	r2, [r3, #20]
   81760:	619a      	str	r2, [r3, #24]
   81762:	61da      	str	r2, [r3, #28]
   81764:	4770      	bx	lr
   81766:	bf00      	nop
   81768:	20070afc 	.word	0x20070afc

0008176c <UnityEnd>:
   8176c:	b570      	push	{r4, r5, r6, lr}
   8176e:	4b66      	ldr	r3, [pc, #408]	; (81908 <UnityEnd+0x19c>)
   81770:	6818      	ldr	r0, [r3, #0]
   81772:	6882      	ldr	r2, [r0, #8]
   81774:	6893      	ldr	r3, [r2, #8]
   81776:	3b01      	subs	r3, #1
   81778:	6093      	str	r3, [r2, #8]
   8177a:	2b00      	cmp	r3, #0
   8177c:	da19      	bge.n	817b2 <UnityEnd+0x46>
   8177e:	6882      	ldr	r2, [r0, #8]
   81780:	6891      	ldr	r1, [r2, #8]
   81782:	6993      	ldr	r3, [r2, #24]
   81784:	4299      	cmp	r1, r3
   81786:	db10      	blt.n	817aa <UnityEnd+0x3e>
   81788:	6813      	ldr	r3, [r2, #0]
   8178a:	220a      	movs	r2, #10
   8178c:	701a      	strb	r2, [r3, #0]
   8178e:	4b5e      	ldr	r3, [pc, #376]	; (81908 <UnityEnd+0x19c>)
   81790:	6818      	ldr	r0, [r3, #0]
   81792:	6882      	ldr	r2, [r0, #8]
   81794:	6813      	ldr	r3, [r2, #0]
   81796:	7819      	ldrb	r1, [r3, #0]
   81798:	290a      	cmp	r1, #10
   8179a:	d002      	beq.n	817a2 <UnityEnd+0x36>
   8179c:	3301      	adds	r3, #1
   8179e:	6013      	str	r3, [r2, #0]
   817a0:	e011      	b.n	817c6 <UnityEnd+0x5a>
   817a2:	210a      	movs	r1, #10
   817a4:	4b59      	ldr	r3, [pc, #356]	; (8190c <UnityEnd+0x1a0>)
   817a6:	4798      	blx	r3
   817a8:	e00d      	b.n	817c6 <UnityEnd+0x5a>
   817aa:	210a      	movs	r1, #10
   817ac:	4b57      	ldr	r3, [pc, #348]	; (8190c <UnityEnd+0x1a0>)
   817ae:	4798      	blx	r3
   817b0:	e009      	b.n	817c6 <UnityEnd+0x5a>
   817b2:	6883      	ldr	r3, [r0, #8]
   817b4:	681b      	ldr	r3, [r3, #0]
   817b6:	220a      	movs	r2, #10
   817b8:	701a      	strb	r2, [r3, #0]
   817ba:	4b53      	ldr	r3, [pc, #332]	; (81908 <UnityEnd+0x19c>)
   817bc:	681b      	ldr	r3, [r3, #0]
   817be:	689b      	ldr	r3, [r3, #8]
   817c0:	681a      	ldr	r2, [r3, #0]
   817c2:	3201      	adds	r2, #1
   817c4:	601a      	str	r2, [r3, #0]
   817c6:	4852      	ldr	r0, [pc, #328]	; (81910 <UnityEnd+0x1a4>)
   817c8:	4b52      	ldr	r3, [pc, #328]	; (81914 <UnityEnd+0x1a8>)
   817ca:	4798      	blx	r3
   817cc:	4b4e      	ldr	r3, [pc, #312]	; (81908 <UnityEnd+0x19c>)
   817ce:	6818      	ldr	r0, [r3, #0]
   817d0:	6882      	ldr	r2, [r0, #8]
   817d2:	6893      	ldr	r3, [r2, #8]
   817d4:	3b01      	subs	r3, #1
   817d6:	6093      	str	r3, [r2, #8]
   817d8:	2b00      	cmp	r3, #0
   817da:	da19      	bge.n	81810 <UnityEnd+0xa4>
   817dc:	6882      	ldr	r2, [r0, #8]
   817de:	6891      	ldr	r1, [r2, #8]
   817e0:	6993      	ldr	r3, [r2, #24]
   817e2:	4299      	cmp	r1, r3
   817e4:	db10      	blt.n	81808 <UnityEnd+0x9c>
   817e6:	6813      	ldr	r3, [r2, #0]
   817e8:	220a      	movs	r2, #10
   817ea:	701a      	strb	r2, [r3, #0]
   817ec:	4b46      	ldr	r3, [pc, #280]	; (81908 <UnityEnd+0x19c>)
   817ee:	6818      	ldr	r0, [r3, #0]
   817f0:	6882      	ldr	r2, [r0, #8]
   817f2:	6813      	ldr	r3, [r2, #0]
   817f4:	7819      	ldrb	r1, [r3, #0]
   817f6:	290a      	cmp	r1, #10
   817f8:	d002      	beq.n	81800 <UnityEnd+0x94>
   817fa:	3301      	adds	r3, #1
   817fc:	6013      	str	r3, [r2, #0]
   817fe:	e011      	b.n	81824 <UnityEnd+0xb8>
   81800:	210a      	movs	r1, #10
   81802:	4b42      	ldr	r3, [pc, #264]	; (8190c <UnityEnd+0x1a0>)
   81804:	4798      	blx	r3
   81806:	e00d      	b.n	81824 <UnityEnd+0xb8>
   81808:	210a      	movs	r1, #10
   8180a:	4b40      	ldr	r3, [pc, #256]	; (8190c <UnityEnd+0x1a0>)
   8180c:	4798      	blx	r3
   8180e:	e009      	b.n	81824 <UnityEnd+0xb8>
   81810:	6883      	ldr	r3, [r0, #8]
   81812:	681b      	ldr	r3, [r3, #0]
   81814:	220a      	movs	r2, #10
   81816:	701a      	strb	r2, [r3, #0]
   81818:	4b3b      	ldr	r3, [pc, #236]	; (81908 <UnityEnd+0x19c>)
   8181a:	681b      	ldr	r3, [r3, #0]
   8181c:	689b      	ldr	r3, [r3, #8]
   8181e:	681a      	ldr	r2, [r3, #0]
   81820:	3201      	adds	r2, #1
   81822:	601a      	str	r2, [r3, #0]
   81824:	4e3c      	ldr	r6, [pc, #240]	; (81918 <UnityEnd+0x1ac>)
   81826:	68f0      	ldr	r0, [r6, #12]
   81828:	4d3c      	ldr	r5, [pc, #240]	; (8191c <UnityEnd+0x1b0>)
   8182a:	47a8      	blx	r5
   8182c:	483c      	ldr	r0, [pc, #240]	; (81920 <UnityEnd+0x1b4>)
   8182e:	4c39      	ldr	r4, [pc, #228]	; (81914 <UnityEnd+0x1a8>)
   81830:	47a0      	blx	r4
   81832:	6930      	ldr	r0, [r6, #16]
   81834:	47a8      	blx	r5
   81836:	483b      	ldr	r0, [pc, #236]	; (81924 <UnityEnd+0x1b8>)
   81838:	47a0      	blx	r4
   8183a:	6970      	ldr	r0, [r6, #20]
   8183c:	47a8      	blx	r5
   8183e:	483a      	ldr	r0, [pc, #232]	; (81928 <UnityEnd+0x1bc>)
   81840:	47a0      	blx	r4
   81842:	4b31      	ldr	r3, [pc, #196]	; (81908 <UnityEnd+0x19c>)
   81844:	6818      	ldr	r0, [r3, #0]
   81846:	6882      	ldr	r2, [r0, #8]
   81848:	6893      	ldr	r3, [r2, #8]
   8184a:	3b01      	subs	r3, #1
   8184c:	6093      	str	r3, [r2, #8]
   8184e:	2b00      	cmp	r3, #0
   81850:	da19      	bge.n	81886 <UnityEnd+0x11a>
   81852:	6882      	ldr	r2, [r0, #8]
   81854:	6891      	ldr	r1, [r2, #8]
   81856:	6993      	ldr	r3, [r2, #24]
   81858:	4299      	cmp	r1, r3
   8185a:	db10      	blt.n	8187e <UnityEnd+0x112>
   8185c:	6813      	ldr	r3, [r2, #0]
   8185e:	220a      	movs	r2, #10
   81860:	701a      	strb	r2, [r3, #0]
   81862:	4b29      	ldr	r3, [pc, #164]	; (81908 <UnityEnd+0x19c>)
   81864:	6818      	ldr	r0, [r3, #0]
   81866:	6882      	ldr	r2, [r0, #8]
   81868:	6813      	ldr	r3, [r2, #0]
   8186a:	7819      	ldrb	r1, [r3, #0]
   8186c:	290a      	cmp	r1, #10
   8186e:	d002      	beq.n	81876 <UnityEnd+0x10a>
   81870:	3301      	adds	r3, #1
   81872:	6013      	str	r3, [r2, #0]
   81874:	e011      	b.n	8189a <UnityEnd+0x12e>
   81876:	210a      	movs	r1, #10
   81878:	4b24      	ldr	r3, [pc, #144]	; (8190c <UnityEnd+0x1a0>)
   8187a:	4798      	blx	r3
   8187c:	e00d      	b.n	8189a <UnityEnd+0x12e>
   8187e:	210a      	movs	r1, #10
   81880:	4b22      	ldr	r3, [pc, #136]	; (8190c <UnityEnd+0x1a0>)
   81882:	4798      	blx	r3
   81884:	e009      	b.n	8189a <UnityEnd+0x12e>
   81886:	6883      	ldr	r3, [r0, #8]
   81888:	681b      	ldr	r3, [r3, #0]
   8188a:	220a      	movs	r2, #10
   8188c:	701a      	strb	r2, [r3, #0]
   8188e:	4b1e      	ldr	r3, [pc, #120]	; (81908 <UnityEnd+0x19c>)
   81890:	681b      	ldr	r3, [r3, #0]
   81892:	689b      	ldr	r3, [r3, #8]
   81894:	681a      	ldr	r2, [r3, #0]
   81896:	3201      	adds	r2, #1
   81898:	601a      	str	r2, [r3, #0]
   8189a:	4b1f      	ldr	r3, [pc, #124]	; (81918 <UnityEnd+0x1ac>)
   8189c:	691b      	ldr	r3, [r3, #16]
   8189e:	b913      	cbnz	r3, 818a6 <UnityEnd+0x13a>
   818a0:	4b22      	ldr	r3, [pc, #136]	; (8192c <UnityEnd+0x1c0>)
   818a2:	4798      	blx	r3
   818a4:	e001      	b.n	818aa <UnityEnd+0x13e>
   818a6:	4b22      	ldr	r3, [pc, #136]	; (81930 <UnityEnd+0x1c4>)
   818a8:	4798      	blx	r3
   818aa:	4b17      	ldr	r3, [pc, #92]	; (81908 <UnityEnd+0x19c>)
   818ac:	6818      	ldr	r0, [r3, #0]
   818ae:	6882      	ldr	r2, [r0, #8]
   818b0:	6893      	ldr	r3, [r2, #8]
   818b2:	3b01      	subs	r3, #1
   818b4:	6093      	str	r3, [r2, #8]
   818b6:	2b00      	cmp	r3, #0
   818b8:	da19      	bge.n	818ee <UnityEnd+0x182>
   818ba:	6882      	ldr	r2, [r0, #8]
   818bc:	6891      	ldr	r1, [r2, #8]
   818be:	6993      	ldr	r3, [r2, #24]
   818c0:	4299      	cmp	r1, r3
   818c2:	db10      	blt.n	818e6 <UnityEnd+0x17a>
   818c4:	6813      	ldr	r3, [r2, #0]
   818c6:	220a      	movs	r2, #10
   818c8:	701a      	strb	r2, [r3, #0]
   818ca:	4b0f      	ldr	r3, [pc, #60]	; (81908 <UnityEnd+0x19c>)
   818cc:	6818      	ldr	r0, [r3, #0]
   818ce:	6882      	ldr	r2, [r0, #8]
   818d0:	6813      	ldr	r3, [r2, #0]
   818d2:	7819      	ldrb	r1, [r3, #0]
   818d4:	290a      	cmp	r1, #10
   818d6:	d002      	beq.n	818de <UnityEnd+0x172>
   818d8:	3301      	adds	r3, #1
   818da:	6013      	str	r3, [r2, #0]
   818dc:	e011      	b.n	81902 <UnityEnd+0x196>
   818de:	210a      	movs	r1, #10
   818e0:	4b0a      	ldr	r3, [pc, #40]	; (8190c <UnityEnd+0x1a0>)
   818e2:	4798      	blx	r3
   818e4:	e00d      	b.n	81902 <UnityEnd+0x196>
   818e6:	210a      	movs	r1, #10
   818e8:	4b08      	ldr	r3, [pc, #32]	; (8190c <UnityEnd+0x1a0>)
   818ea:	4798      	blx	r3
   818ec:	e009      	b.n	81902 <UnityEnd+0x196>
   818ee:	6883      	ldr	r3, [r0, #8]
   818f0:	681b      	ldr	r3, [r3, #0]
   818f2:	220a      	movs	r2, #10
   818f4:	701a      	strb	r2, [r3, #0]
   818f6:	4b04      	ldr	r3, [pc, #16]	; (81908 <UnityEnd+0x19c>)
   818f8:	681b      	ldr	r3, [r3, #0]
   818fa:	689b      	ldr	r3, [r3, #8]
   818fc:	681a      	ldr	r2, [r3, #0]
   818fe:	3201      	adds	r2, #1
   81900:	601a      	str	r2, [r3, #0]
   81902:	4b05      	ldr	r3, [pc, #20]	; (81918 <UnityEnd+0x1ac>)
   81904:	6918      	ldr	r0, [r3, #16]
   81906:	bd70      	pop	{r4, r5, r6, pc}
   81908:	20070560 	.word	0x20070560
   8190c:	00082249 	.word	0x00082249
   81910:	000834c4 	.word	0x000834c4
   81914:	00080e6d 	.word	0x00080e6d
   81918:	20070afc 	.word	0x20070afc
   8191c:	00080a7d 	.word	0x00080a7d
   81920:	000834f4 	.word	0x000834f4
   81924:	000834dc 	.word	0x000834dc
   81928:	000834e8 	.word	0x000834e8
   8192c:	000813e9 	.word	0x000813e9
   81930:	000813d5 	.word	0x000813d5

00081934 <sysclk_init>:
   81934:	b510      	push	{r4, lr}
   81936:	480e      	ldr	r0, [pc, #56]	; (81970 <sysclk_init+0x3c>)
   81938:	4b0e      	ldr	r3, [pc, #56]	; (81974 <sysclk_init+0x40>)
   8193a:	4798      	blx	r3
   8193c:	2000      	movs	r0, #0
   8193e:	213e      	movs	r1, #62	; 0x3e
   81940:	4b0d      	ldr	r3, [pc, #52]	; (81978 <sysclk_init+0x44>)
   81942:	4798      	blx	r3
   81944:	4c0d      	ldr	r4, [pc, #52]	; (8197c <sysclk_init+0x48>)
   81946:	47a0      	blx	r4
   81948:	2800      	cmp	r0, #0
   8194a:	d0fc      	beq.n	81946 <sysclk_init+0x12>
   8194c:	4b0c      	ldr	r3, [pc, #48]	; (81980 <sysclk_init+0x4c>)
   8194e:	4798      	blx	r3
   81950:	4a0c      	ldr	r2, [pc, #48]	; (81984 <sysclk_init+0x50>)
   81952:	4b0d      	ldr	r3, [pc, #52]	; (81988 <sysclk_init+0x54>)
   81954:	629a      	str	r2, [r3, #40]	; 0x28
   81956:	4c0d      	ldr	r4, [pc, #52]	; (8198c <sysclk_init+0x58>)
   81958:	47a0      	blx	r4
   8195a:	2800      	cmp	r0, #0
   8195c:	d0fc      	beq.n	81958 <sysclk_init+0x24>
   8195e:	2010      	movs	r0, #16
   81960:	4b0b      	ldr	r3, [pc, #44]	; (81990 <sysclk_init+0x5c>)
   81962:	4798      	blx	r3
   81964:	4b0b      	ldr	r3, [pc, #44]	; (81994 <sysclk_init+0x60>)
   81966:	4798      	blx	r3
   81968:	4801      	ldr	r0, [pc, #4]	; (81970 <sysclk_init+0x3c>)
   8196a:	4b02      	ldr	r3, [pc, #8]	; (81974 <sysclk_init+0x40>)
   8196c:	4798      	blx	r3
   8196e:	bd10      	pop	{r4, pc}
   81970:	0501bd00 	.word	0x0501bd00
   81974:	200700a5 	.word	0x200700a5
   81978:	00081d3d 	.word	0x00081d3d
   8197c:	00081d91 	.word	0x00081d91
   81980:	00081da1 	.word	0x00081da1
   81984:	200d3f01 	.word	0x200d3f01
   81988:	400e0600 	.word	0x400e0600
   8198c:	00081db1 	.word	0x00081db1
   81990:	00081cd9 	.word	0x00081cd9
   81994:	00081ecd 	.word	0x00081ecd

00081998 <board_init>:
   81998:	b510      	push	{r4, lr}
   8199a:	f44f 4200 	mov.w	r2, #32768	; 0x8000
   8199e:	4b16      	ldr	r3, [pc, #88]	; (819f8 <board_init+0x60>)
   819a0:	605a      	str	r2, [r3, #4]
   819a2:	200b      	movs	r0, #11
   819a4:	4c15      	ldr	r4, [pc, #84]	; (819fc <board_init+0x64>)
   819a6:	47a0      	blx	r4
   819a8:	200c      	movs	r0, #12
   819aa:	47a0      	blx	r4
   819ac:	200d      	movs	r0, #13
   819ae:	47a0      	blx	r4
   819b0:	200e      	movs	r0, #14
   819b2:	47a0      	blx	r4
   819b4:	203b      	movs	r0, #59	; 0x3b
   819b6:	f04f 5160 	mov.w	r1, #939524096	; 0x38000000
   819ba:	4c11      	ldr	r4, [pc, #68]	; (81a00 <board_init+0x68>)
   819bc:	47a0      	blx	r4
   819be:	2055      	movs	r0, #85	; 0x55
   819c0:	f04f 5160 	mov.w	r1, #939524096	; 0x38000000
   819c4:	47a0      	blx	r4
   819c6:	2056      	movs	r0, #86	; 0x56
   819c8:	f04f 5160 	mov.w	r1, #939524096	; 0x38000000
   819cc:	47a0      	blx	r4
   819ce:	2068      	movs	r0, #104	; 0x68
   819d0:	490c      	ldr	r1, [pc, #48]	; (81a04 <board_init+0x6c>)
   819d2:	47a0      	blx	r4
   819d4:	205c      	movs	r0, #92	; 0x5c
   819d6:	490c      	ldr	r1, [pc, #48]	; (81a08 <board_init+0x70>)
   819d8:	47a0      	blx	r4
   819da:	480c      	ldr	r0, [pc, #48]	; (81a0c <board_init+0x74>)
   819dc:	f44f 7140 	mov.w	r1, #768	; 0x300
   819e0:	4a0b      	ldr	r2, [pc, #44]	; (81a10 <board_init+0x78>)
   819e2:	4b0c      	ldr	r3, [pc, #48]	; (81a14 <board_init+0x7c>)
   819e4:	4798      	blx	r3
   819e6:	202b      	movs	r0, #43	; 0x2b
   819e8:	f04f 6100 	mov.w	r1, #134217728	; 0x8000000
   819ec:	47a0      	blx	r4
   819ee:	202a      	movs	r0, #42	; 0x2a
   819f0:	f04f 6100 	mov.w	r1, #134217728	; 0x8000000
   819f4:	47a0      	blx	r4
   819f6:	bd10      	pop	{r4, pc}
   819f8:	400e1a50 	.word	0x400e1a50
   819fc:	00081dc1 	.word	0x00081dc1
   81a00:	00081abd 	.word	0x00081abd
   81a04:	28000079 	.word	0x28000079
   81a08:	28000001 	.word	0x28000001
   81a0c:	400e0e00 	.word	0x400e0e00
   81a10:	08000001 	.word	0x08000001
   81a14:	00081b91 	.word	0x00081b91

00081a18 <pio_set_peripheral>:
   81a18:	6442      	str	r2, [r0, #68]	; 0x44
   81a1a:	f1b1 5f80 	cmp.w	r1, #268435456	; 0x10000000
   81a1e:	d016      	beq.n	81a4e <pio_set_peripheral+0x36>
   81a20:	d804      	bhi.n	81a2c <pio_set_peripheral+0x14>
   81a22:	b1c1      	cbz	r1, 81a56 <pio_set_peripheral+0x3e>
   81a24:	f1b1 6f00 	cmp.w	r1, #134217728	; 0x8000000
   81a28:	d00a      	beq.n	81a40 <pio_set_peripheral+0x28>
   81a2a:	e013      	b.n	81a54 <pio_set_peripheral+0x3c>
   81a2c:	f1b1 5f40 	cmp.w	r1, #805306368	; 0x30000000
   81a30:	d011      	beq.n	81a56 <pio_set_peripheral+0x3e>
   81a32:	f1b1 5f60 	cmp.w	r1, #939524096	; 0x38000000
   81a36:	d00e      	beq.n	81a56 <pio_set_peripheral+0x3e>
   81a38:	f1b1 5f20 	cmp.w	r1, #671088640	; 0x28000000
   81a3c:	d10a      	bne.n	81a54 <pio_set_peripheral+0x3c>
   81a3e:	4770      	bx	lr
   81a40:	6f03      	ldr	r3, [r0, #112]	; 0x70
   81a42:	6f01      	ldr	r1, [r0, #112]	; 0x70
   81a44:	400b      	ands	r3, r1
   81a46:	ea23 0302 	bic.w	r3, r3, r2
   81a4a:	6703      	str	r3, [r0, #112]	; 0x70
   81a4c:	e002      	b.n	81a54 <pio_set_peripheral+0x3c>
   81a4e:	6f03      	ldr	r3, [r0, #112]	; 0x70
   81a50:	4313      	orrs	r3, r2
   81a52:	6703      	str	r3, [r0, #112]	; 0x70
   81a54:	6042      	str	r2, [r0, #4]
   81a56:	4770      	bx	lr

00081a58 <pio_set_input>:
   81a58:	6441      	str	r1, [r0, #68]	; 0x44
   81a5a:	f012 0f01 	tst.w	r2, #1
   81a5e:	bf14      	ite	ne
   81a60:	6641      	strne	r1, [r0, #100]	; 0x64
   81a62:	6601      	streq	r1, [r0, #96]	; 0x60
   81a64:	f012 0f0a 	tst.w	r2, #10
   81a68:	bf14      	ite	ne
   81a6a:	6201      	strne	r1, [r0, #32]
   81a6c:	6241      	streq	r1, [r0, #36]	; 0x24
   81a6e:	f012 0f02 	tst.w	r2, #2
   81a72:	d002      	beq.n	81a7a <pio_set_input+0x22>
   81a74:	f8c0 1080 	str.w	r1, [r0, #128]	; 0x80
   81a78:	e004      	b.n	81a84 <pio_set_input+0x2c>
   81a7a:	f012 0f08 	tst.w	r2, #8
   81a7e:	bf18      	it	ne
   81a80:	f8c0 1084 	strne.w	r1, [r0, #132]	; 0x84
   81a84:	6141      	str	r1, [r0, #20]
   81a86:	6001      	str	r1, [r0, #0]
   81a88:	4770      	bx	lr
   81a8a:	bf00      	nop

00081a8c <pio_set_output>:
   81a8c:	b410      	push	{r4}
   81a8e:	6441      	str	r1, [r0, #68]	; 0x44
   81a90:	9c01      	ldr	r4, [sp, #4]
   81a92:	b10c      	cbz	r4, 81a98 <pio_set_output+0xc>
   81a94:	6641      	str	r1, [r0, #100]	; 0x64
   81a96:	e000      	b.n	81a9a <pio_set_output+0xe>
   81a98:	6601      	str	r1, [r0, #96]	; 0x60
   81a9a:	b10b      	cbz	r3, 81aa0 <pio_set_output+0x14>
   81a9c:	6501      	str	r1, [r0, #80]	; 0x50
   81a9e:	e000      	b.n	81aa2 <pio_set_output+0x16>
   81aa0:	6541      	str	r1, [r0, #84]	; 0x54
   81aa2:	b10a      	cbz	r2, 81aa8 <pio_set_output+0x1c>
   81aa4:	6301      	str	r1, [r0, #48]	; 0x30
   81aa6:	e000      	b.n	81aaa <pio_set_output+0x1e>
   81aa8:	6341      	str	r1, [r0, #52]	; 0x34
   81aaa:	6101      	str	r1, [r0, #16]
   81aac:	6001      	str	r1, [r0, #0]
   81aae:	f85d 4b04 	ldr.w	r4, [sp], #4
   81ab2:	4770      	bx	lr

00081ab4 <pio_get_interrupt_status>:
   81ab4:	6cc0      	ldr	r0, [r0, #76]	; 0x4c
   81ab6:	4770      	bx	lr

00081ab8 <pio_get_interrupt_mask>:
   81ab8:	6c80      	ldr	r0, [r0, #72]	; 0x48
   81aba:	4770      	bx	lr

00081abc <pio_configure_pin>:
   81abc:	b570      	push	{r4, r5, r6, lr}
   81abe:	b082      	sub	sp, #8
   81ac0:	460d      	mov	r5, r1
   81ac2:	0944      	lsrs	r4, r0, #5
   81ac4:	f504 1400 	add.w	r4, r4, #2097152	; 0x200000
   81ac8:	f204 7407 	addw	r4, r4, #1799	; 0x707
   81acc:	0266      	lsls	r6, r4, #9
   81ace:	f001 44f0 	and.w	r4, r1, #2013265920	; 0x78000000
   81ad2:	f1b4 5f20 	cmp.w	r4, #671088640	; 0x28000000
   81ad6:	d030      	beq.n	81b3a <pio_configure_pin+0x7e>
   81ad8:	d806      	bhi.n	81ae8 <pio_configure_pin+0x2c>
   81ada:	f1b4 6f00 	cmp.w	r4, #134217728	; 0x8000000
   81ade:	d00a      	beq.n	81af6 <pio_configure_pin+0x3a>
   81ae0:	f1b4 5f80 	cmp.w	r4, #268435456	; 0x10000000
   81ae4:	d018      	beq.n	81b18 <pio_configure_pin+0x5c>
   81ae6:	e049      	b.n	81b7c <pio_configure_pin+0xc0>
   81ae8:	f1b4 5f40 	cmp.w	r4, #805306368	; 0x30000000
   81aec:	d030      	beq.n	81b50 <pio_configure_pin+0x94>
   81aee:	f1b4 5f60 	cmp.w	r4, #939524096	; 0x38000000
   81af2:	d02d      	beq.n	81b50 <pio_configure_pin+0x94>
   81af4:	e042      	b.n	81b7c <pio_configure_pin+0xc0>
   81af6:	f000 001f 	and.w	r0, r0, #31
   81afa:	2401      	movs	r4, #1
   81afc:	4084      	lsls	r4, r0
   81afe:	4630      	mov	r0, r6
   81b00:	f04f 6100 	mov.w	r1, #134217728	; 0x8000000
   81b04:	4622      	mov	r2, r4
   81b06:	4b1f      	ldr	r3, [pc, #124]	; (81b84 <pio_configure_pin+0xc8>)
   81b08:	4798      	blx	r3
   81b0a:	f015 0f01 	tst.w	r5, #1
   81b0e:	bf14      	ite	ne
   81b10:	6674      	strne	r4, [r6, #100]	; 0x64
   81b12:	6634      	streq	r4, [r6, #96]	; 0x60
   81b14:	2001      	movs	r0, #1
   81b16:	e032      	b.n	81b7e <pio_configure_pin+0xc2>
   81b18:	f000 001f 	and.w	r0, r0, #31
   81b1c:	2401      	movs	r4, #1
   81b1e:	4084      	lsls	r4, r0
   81b20:	4630      	mov	r0, r6
   81b22:	f04f 5180 	mov.w	r1, #268435456	; 0x10000000
   81b26:	4622      	mov	r2, r4
   81b28:	4b16      	ldr	r3, [pc, #88]	; (81b84 <pio_configure_pin+0xc8>)
   81b2a:	4798      	blx	r3
   81b2c:	f015 0f01 	tst.w	r5, #1
   81b30:	bf14      	ite	ne
   81b32:	6674      	strne	r4, [r6, #100]	; 0x64
   81b34:	6634      	streq	r4, [r6, #96]	; 0x60
   81b36:	2001      	movs	r0, #1
   81b38:	e021      	b.n	81b7e <pio_configure_pin+0xc2>
   81b3a:	f000 011f 	and.w	r1, r0, #31
   81b3e:	2401      	movs	r4, #1
   81b40:	4630      	mov	r0, r6
   81b42:	fa04 f101 	lsl.w	r1, r4, r1
   81b46:	462a      	mov	r2, r5
   81b48:	4b0f      	ldr	r3, [pc, #60]	; (81b88 <pio_configure_pin+0xcc>)
   81b4a:	4798      	blx	r3
   81b4c:	4620      	mov	r0, r4
   81b4e:	e016      	b.n	81b7e <pio_configure_pin+0xc2>
   81b50:	f000 011f 	and.w	r1, r0, #31
   81b54:	2401      	movs	r4, #1
   81b56:	f005 5260 	and.w	r2, r5, #939524096	; 0x38000000
   81b5a:	ea05 0304 	and.w	r3, r5, r4
   81b5e:	9300      	str	r3, [sp, #0]
   81b60:	4630      	mov	r0, r6
   81b62:	fa04 f101 	lsl.w	r1, r4, r1
   81b66:	f1b2 5f60 	cmp.w	r2, #939524096	; 0x38000000
   81b6a:	bf14      	ite	ne
   81b6c:	2200      	movne	r2, #0
   81b6e:	2201      	moveq	r2, #1
   81b70:	f3c5 0380 	ubfx	r3, r5, #2, #1
   81b74:	4d05      	ldr	r5, [pc, #20]	; (81b8c <pio_configure_pin+0xd0>)
   81b76:	47a8      	blx	r5
   81b78:	4620      	mov	r0, r4
   81b7a:	e000      	b.n	81b7e <pio_configure_pin+0xc2>
   81b7c:	2000      	movs	r0, #0
   81b7e:	b002      	add	sp, #8
   81b80:	bd70      	pop	{r4, r5, r6, pc}
   81b82:	bf00      	nop
   81b84:	00081a19 	.word	0x00081a19
   81b88:	00081a59 	.word	0x00081a59
   81b8c:	00081a8d 	.word	0x00081a8d

00081b90 <pio_configure_pin_group>:
   81b90:	b5f0      	push	{r4, r5, r6, r7, lr}
   81b92:	b083      	sub	sp, #12
   81b94:	4607      	mov	r7, r0
   81b96:	460e      	mov	r6, r1
   81b98:	4615      	mov	r5, r2
   81b9a:	f002 44f0 	and.w	r4, r2, #2013265920	; 0x78000000
   81b9e:	f1b4 5f20 	cmp.w	r4, #671088640	; 0x28000000
   81ba2:	d026      	beq.n	81bf2 <pio_configure_pin_group+0x62>
   81ba4:	d806      	bhi.n	81bb4 <pio_configure_pin_group+0x24>
   81ba6:	f1b4 6f00 	cmp.w	r4, #134217728	; 0x8000000
   81baa:	d00a      	beq.n	81bc2 <pio_configure_pin_group+0x32>
   81bac:	f1b4 5f80 	cmp.w	r4, #268435456	; 0x10000000
   81bb0:	d013      	beq.n	81bda <pio_configure_pin_group+0x4a>
   81bb2:	e034      	b.n	81c1e <pio_configure_pin_group+0x8e>
   81bb4:	f1b4 5f40 	cmp.w	r4, #805306368	; 0x30000000
   81bb8:	d01f      	beq.n	81bfa <pio_configure_pin_group+0x6a>
   81bba:	f1b4 5f60 	cmp.w	r4, #939524096	; 0x38000000
   81bbe:	d01c      	beq.n	81bfa <pio_configure_pin_group+0x6a>
   81bc0:	e02d      	b.n	81c1e <pio_configure_pin_group+0x8e>
   81bc2:	f04f 6100 	mov.w	r1, #134217728	; 0x8000000
   81bc6:	4632      	mov	r2, r6
   81bc8:	4b16      	ldr	r3, [pc, #88]	; (81c24 <pio_configure_pin_group+0x94>)
   81bca:	4798      	blx	r3
   81bcc:	f015 0f01 	tst.w	r5, #1
   81bd0:	bf14      	ite	ne
   81bd2:	667e      	strne	r6, [r7, #100]	; 0x64
   81bd4:	663e      	streq	r6, [r7, #96]	; 0x60
   81bd6:	2001      	movs	r0, #1
   81bd8:	e022      	b.n	81c20 <pio_configure_pin_group+0x90>
   81bda:	f04f 5180 	mov.w	r1, #268435456	; 0x10000000
   81bde:	4632      	mov	r2, r6
   81be0:	4b10      	ldr	r3, [pc, #64]	; (81c24 <pio_configure_pin_group+0x94>)
   81be2:	4798      	blx	r3
   81be4:	f015 0f01 	tst.w	r5, #1
   81be8:	bf14      	ite	ne
   81bea:	667e      	strne	r6, [r7, #100]	; 0x64
   81bec:	663e      	streq	r6, [r7, #96]	; 0x60
   81bee:	2001      	movs	r0, #1
   81bf0:	e016      	b.n	81c20 <pio_configure_pin_group+0x90>
   81bf2:	4b0d      	ldr	r3, [pc, #52]	; (81c28 <pio_configure_pin_group+0x98>)
   81bf4:	4798      	blx	r3
   81bf6:	2001      	movs	r0, #1
   81bf8:	e012      	b.n	81c20 <pio_configure_pin_group+0x90>
   81bfa:	f005 5260 	and.w	r2, r5, #939524096	; 0x38000000
   81bfe:	f005 0301 	and.w	r3, r5, #1
   81c02:	9300      	str	r3, [sp, #0]
   81c04:	4638      	mov	r0, r7
   81c06:	4631      	mov	r1, r6
   81c08:	f1b2 5f60 	cmp.w	r2, #939524096	; 0x38000000
   81c0c:	bf14      	ite	ne
   81c0e:	2200      	movne	r2, #0
   81c10:	2201      	moveq	r2, #1
   81c12:	f3c5 0380 	ubfx	r3, r5, #2, #1
   81c16:	4c05      	ldr	r4, [pc, #20]	; (81c2c <pio_configure_pin_group+0x9c>)
   81c18:	47a0      	blx	r4
   81c1a:	2001      	movs	r0, #1
   81c1c:	e000      	b.n	81c20 <pio_configure_pin_group+0x90>
   81c1e:	2000      	movs	r0, #0
   81c20:	b003      	add	sp, #12
   81c22:	bdf0      	pop	{r4, r5, r6, r7, pc}
   81c24:	00081a19 	.word	0x00081a19
   81c28:	00081a59 	.word	0x00081a59
   81c2c:	00081a8d 	.word	0x00081a8d

00081c30 <pio_handler_process>:
   81c30:	e92d 41f0 	stmdb	sp!, {r4, r5, r6, r7, r8, lr}
   81c34:	4604      	mov	r4, r0
   81c36:	460e      	mov	r6, r1
   81c38:	4b10      	ldr	r3, [pc, #64]	; (81c7c <pio_handler_process+0x4c>)
   81c3a:	4798      	blx	r3
   81c3c:	4605      	mov	r5, r0
   81c3e:	4620      	mov	r0, r4
   81c40:	4b0f      	ldr	r3, [pc, #60]	; (81c80 <pio_handler_process+0x50>)
   81c42:	4798      	blx	r3
   81c44:	4005      	ands	r5, r0
   81c46:	d017      	beq.n	81c78 <pio_handler_process+0x48>
   81c48:	4f0e      	ldr	r7, [pc, #56]	; (81c84 <pio_handler_process+0x54>)
   81c4a:	f107 040c 	add.w	r4, r7, #12
   81c4e:	376c      	adds	r7, #108	; 0x6c
   81c50:	f854 3c0c 	ldr.w	r3, [r4, #-12]
   81c54:	42b3      	cmp	r3, r6
   81c56:	d10a      	bne.n	81c6e <pio_handler_process+0x3e>
   81c58:	f854 1c08 	ldr.w	r1, [r4, #-8]
   81c5c:	4229      	tst	r1, r5
   81c5e:	d006      	beq.n	81c6e <pio_handler_process+0x3e>
   81c60:	6823      	ldr	r3, [r4, #0]
   81c62:	4630      	mov	r0, r6
   81c64:	4798      	blx	r3
   81c66:	f854 3c08 	ldr.w	r3, [r4, #-8]
   81c6a:	ea25 0503 	bic.w	r5, r5, r3
   81c6e:	42bc      	cmp	r4, r7
   81c70:	d002      	beq.n	81c78 <pio_handler_process+0x48>
   81c72:	3410      	adds	r4, #16
   81c74:	2d00      	cmp	r5, #0
   81c76:	d1eb      	bne.n	81c50 <pio_handler_process+0x20>
   81c78:	e8bd 81f0 	ldmia.w	sp!, {r4, r5, r6, r7, r8, pc}
   81c7c:	00081ab5 	.word	0x00081ab5
   81c80:	00081ab9 	.word	0x00081ab9
   81c84:	20070a30 	.word	0x20070a30

00081c88 <PIOA_Handler>:
   81c88:	b508      	push	{r3, lr}
   81c8a:	4802      	ldr	r0, [pc, #8]	; (81c94 <PIOA_Handler+0xc>)
   81c8c:	210b      	movs	r1, #11
   81c8e:	4b02      	ldr	r3, [pc, #8]	; (81c98 <PIOA_Handler+0x10>)
   81c90:	4798      	blx	r3
   81c92:	bd08      	pop	{r3, pc}
   81c94:	400e0e00 	.word	0x400e0e00
   81c98:	00081c31 	.word	0x00081c31

00081c9c <PIOB_Handler>:
   81c9c:	b508      	push	{r3, lr}
   81c9e:	4802      	ldr	r0, [pc, #8]	; (81ca8 <PIOB_Handler+0xc>)
   81ca0:	210c      	movs	r1, #12
   81ca2:	4b02      	ldr	r3, [pc, #8]	; (81cac <PIOB_Handler+0x10>)
   81ca4:	4798      	blx	r3
   81ca6:	bd08      	pop	{r3, pc}
   81ca8:	400e1000 	.word	0x400e1000
   81cac:	00081c31 	.word	0x00081c31

00081cb0 <PIOC_Handler>:
   81cb0:	b508      	push	{r3, lr}
   81cb2:	4802      	ldr	r0, [pc, #8]	; (81cbc <PIOC_Handler+0xc>)
   81cb4:	210d      	movs	r1, #13
   81cb6:	4b02      	ldr	r3, [pc, #8]	; (81cc0 <PIOC_Handler+0x10>)
   81cb8:	4798      	blx	r3
   81cba:	bd08      	pop	{r3, pc}
   81cbc:	400e1200 	.word	0x400e1200
   81cc0:	00081c31 	.word	0x00081c31

00081cc4 <PIOD_Handler>:
   81cc4:	b508      	push	{r3, lr}
   81cc6:	4802      	ldr	r0, [pc, #8]	; (81cd0 <PIOD_Handler+0xc>)
   81cc8:	210e      	movs	r1, #14
   81cca:	4b02      	ldr	r3, [pc, #8]	; (81cd4 <PIOD_Handler+0x10>)
   81ccc:	4798      	blx	r3
   81cce:	bd08      	pop	{r3, pc}
   81cd0:	400e1400 	.word	0x400e1400
   81cd4:	00081c31 	.word	0x00081c31

00081cd8 <pmc_switch_mck_to_pllack>:
   81cd8:	4b17      	ldr	r3, [pc, #92]	; (81d38 <pmc_switch_mck_to_pllack+0x60>)
   81cda:	6b1a      	ldr	r2, [r3, #48]	; 0x30
   81cdc:	f022 0270 	bic.w	r2, r2, #112	; 0x70
   81ce0:	4310      	orrs	r0, r2
   81ce2:	6318      	str	r0, [r3, #48]	; 0x30
   81ce4:	6e9b      	ldr	r3, [r3, #104]	; 0x68
   81ce6:	f013 0f08 	tst.w	r3, #8
   81cea:	d109      	bne.n	81d00 <pmc_switch_mck_to_pllack+0x28>
   81cec:	f44f 6300 	mov.w	r3, #2048	; 0x800
   81cf0:	4911      	ldr	r1, [pc, #68]	; (81d38 <pmc_switch_mck_to_pllack+0x60>)
   81cf2:	e001      	b.n	81cf8 <pmc_switch_mck_to_pllack+0x20>
   81cf4:	3b01      	subs	r3, #1
   81cf6:	d019      	beq.n	81d2c <pmc_switch_mck_to_pllack+0x54>
   81cf8:	6e8a      	ldr	r2, [r1, #104]	; 0x68
   81cfa:	f012 0f08 	tst.w	r2, #8
   81cfe:	d0f9      	beq.n	81cf4 <pmc_switch_mck_to_pllack+0x1c>
   81d00:	4b0d      	ldr	r3, [pc, #52]	; (81d38 <pmc_switch_mck_to_pllack+0x60>)
   81d02:	6b1a      	ldr	r2, [r3, #48]	; 0x30
   81d04:	f022 0203 	bic.w	r2, r2, #3
   81d08:	f042 0202 	orr.w	r2, r2, #2
   81d0c:	631a      	str	r2, [r3, #48]	; 0x30
   81d0e:	6e98      	ldr	r0, [r3, #104]	; 0x68
   81d10:	f010 0008 	ands.w	r0, r0, #8
   81d14:	d10c      	bne.n	81d30 <pmc_switch_mck_to_pllack+0x58>
   81d16:	f44f 6300 	mov.w	r3, #2048	; 0x800
   81d1a:	4907      	ldr	r1, [pc, #28]	; (81d38 <pmc_switch_mck_to_pllack+0x60>)
   81d1c:	e001      	b.n	81d22 <pmc_switch_mck_to_pllack+0x4a>
   81d1e:	3b01      	subs	r3, #1
   81d20:	d008      	beq.n	81d34 <pmc_switch_mck_to_pllack+0x5c>
   81d22:	6e8a      	ldr	r2, [r1, #104]	; 0x68
   81d24:	f012 0f08 	tst.w	r2, #8
   81d28:	d0f9      	beq.n	81d1e <pmc_switch_mck_to_pllack+0x46>
   81d2a:	4770      	bx	lr
   81d2c:	2001      	movs	r0, #1
   81d2e:	4770      	bx	lr
   81d30:	2000      	movs	r0, #0
   81d32:	4770      	bx	lr
   81d34:	2001      	movs	r0, #1
   81d36:	4770      	bx	lr
   81d38:	400e0600 	.word	0x400e0600

00081d3c <pmc_switch_mainck_to_xtal>:
   81d3c:	b138      	cbz	r0, 81d4e <pmc_switch_mainck_to_xtal+0x12>
   81d3e:	4911      	ldr	r1, [pc, #68]	; (81d84 <pmc_switch_mainck_to_xtal+0x48>)
   81d40:	6a0b      	ldr	r3, [r1, #32]
   81d42:	4a11      	ldr	r2, [pc, #68]	; (81d88 <pmc_switch_mainck_to_xtal+0x4c>)
   81d44:	401a      	ands	r2, r3
   81d46:	4b11      	ldr	r3, [pc, #68]	; (81d8c <pmc_switch_mainck_to_xtal+0x50>)
   81d48:	4313      	orrs	r3, r2
   81d4a:	620b      	str	r3, [r1, #32]
   81d4c:	4770      	bx	lr
   81d4e:	4a0d      	ldr	r2, [pc, #52]	; (81d84 <pmc_switch_mainck_to_xtal+0x48>)
   81d50:	6a13      	ldr	r3, [r2, #32]
   81d52:	f423 135c 	bic.w	r3, r3, #3604480	; 0x370000
   81d56:	f023 0303 	bic.w	r3, r3, #3
   81d5a:	f443 135c 	orr.w	r3, r3, #3604480	; 0x370000
   81d5e:	f043 0301 	orr.w	r3, r3, #1
   81d62:	0209      	lsls	r1, r1, #8
   81d64:	b289      	uxth	r1, r1
   81d66:	430b      	orrs	r3, r1
   81d68:	6213      	str	r3, [r2, #32]
   81d6a:	6e93      	ldr	r3, [r2, #104]	; 0x68
   81d6c:	f013 0f01 	tst.w	r3, #1
   81d70:	d0fb      	beq.n	81d6a <pmc_switch_mainck_to_xtal+0x2e>
   81d72:	4a04      	ldr	r2, [pc, #16]	; (81d84 <pmc_switch_mainck_to_xtal+0x48>)
   81d74:	6a13      	ldr	r3, [r2, #32]
   81d76:	f043 739b 	orr.w	r3, r3, #20316160	; 0x1360000
   81d7a:	f443 3380 	orr.w	r3, r3, #65536	; 0x10000
   81d7e:	6213      	str	r3, [r2, #32]
   81d80:	4770      	bx	lr
   81d82:	bf00      	nop
   81d84:	400e0600 	.word	0x400e0600
   81d88:	fec8fffc 	.word	0xfec8fffc
   81d8c:	01370002 	.word	0x01370002

00081d90 <pmc_osc_is_ready_mainck>:
   81d90:	4b02      	ldr	r3, [pc, #8]	; (81d9c <pmc_osc_is_ready_mainck+0xc>)
   81d92:	6e98      	ldr	r0, [r3, #104]	; 0x68
   81d94:	f400 3080 	and.w	r0, r0, #65536	; 0x10000
   81d98:	4770      	bx	lr
   81d9a:	bf00      	nop
   81d9c:	400e0600 	.word	0x400e0600

00081da0 <pmc_disable_pllack>:
   81da0:	f04f 5200 	mov.w	r2, #536870912	; 0x20000000
   81da4:	4b01      	ldr	r3, [pc, #4]	; (81dac <pmc_disable_pllack+0xc>)
   81da6:	629a      	str	r2, [r3, #40]	; 0x28
   81da8:	4770      	bx	lr
   81daa:	bf00      	nop
   81dac:	400e0600 	.word	0x400e0600

00081db0 <pmc_is_locked_pllack>:
   81db0:	4b02      	ldr	r3, [pc, #8]	; (81dbc <pmc_is_locked_pllack+0xc>)
   81db2:	6e98      	ldr	r0, [r3, #104]	; 0x68
   81db4:	f000 0002 	and.w	r0, r0, #2
   81db8:	4770      	bx	lr
   81dba:	bf00      	nop
   81dbc:	400e0600 	.word	0x400e0600

00081dc0 <pmc_enable_periph_clk>:
   81dc0:	282c      	cmp	r0, #44	; 0x2c
   81dc2:	d820      	bhi.n	81e06 <pmc_enable_periph_clk+0x46>
   81dc4:	281f      	cmp	r0, #31
   81dc6:	d80d      	bhi.n	81de4 <pmc_enable_periph_clk+0x24>
   81dc8:	4b12      	ldr	r3, [pc, #72]	; (81e14 <pmc_enable_periph_clk+0x54>)
   81dca:	699a      	ldr	r2, [r3, #24]
   81dcc:	2301      	movs	r3, #1
   81dce:	4083      	lsls	r3, r0
   81dd0:	401a      	ands	r2, r3
   81dd2:	4293      	cmp	r3, r2
   81dd4:	d019      	beq.n	81e0a <pmc_enable_periph_clk+0x4a>
   81dd6:	2301      	movs	r3, #1
   81dd8:	fa03 f000 	lsl.w	r0, r3, r0
   81ddc:	4b0d      	ldr	r3, [pc, #52]	; (81e14 <pmc_enable_periph_clk+0x54>)
   81dde:	6118      	str	r0, [r3, #16]
   81de0:	2000      	movs	r0, #0
   81de2:	4770      	bx	lr
   81de4:	4b0b      	ldr	r3, [pc, #44]	; (81e14 <pmc_enable_periph_clk+0x54>)
   81de6:	f8d3 2108 	ldr.w	r2, [r3, #264]	; 0x108
   81dea:	3820      	subs	r0, #32
   81dec:	2301      	movs	r3, #1
   81dee:	4083      	lsls	r3, r0
   81df0:	401a      	ands	r2, r3
   81df2:	4293      	cmp	r3, r2
   81df4:	d00b      	beq.n	81e0e <pmc_enable_periph_clk+0x4e>
   81df6:	2301      	movs	r3, #1
   81df8:	fa03 f000 	lsl.w	r0, r3, r0
   81dfc:	4b05      	ldr	r3, [pc, #20]	; (81e14 <pmc_enable_periph_clk+0x54>)
   81dfe:	f8c3 0100 	str.w	r0, [r3, #256]	; 0x100
   81e02:	2000      	movs	r0, #0
   81e04:	4770      	bx	lr
   81e06:	2001      	movs	r0, #1
   81e08:	4770      	bx	lr
   81e0a:	2000      	movs	r0, #0
   81e0c:	4770      	bx	lr
   81e0e:	2000      	movs	r0, #0
   81e10:	4770      	bx	lr
   81e12:	bf00      	nop
   81e14:	400e0600 	.word	0x400e0600

00081e18 <Dummy_Handler>:
   81e18:	e7fe      	b.n	81e18 <Dummy_Handler>
   81e1a:	bf00      	nop

00081e1c <Reset_Handler>:
   81e1c:	b510      	push	{r4, lr}
   81e1e:	4b1e      	ldr	r3, [pc, #120]	; (81e98 <Reset_Handler+0x7c>)
   81e20:	4a1e      	ldr	r2, [pc, #120]	; (81e9c <Reset_Handler+0x80>)
   81e22:	429a      	cmp	r2, r3
   81e24:	d003      	beq.n	81e2e <Reset_Handler+0x12>
   81e26:	4b1e      	ldr	r3, [pc, #120]	; (81ea0 <Reset_Handler+0x84>)
   81e28:	4a1b      	ldr	r2, [pc, #108]	; (81e98 <Reset_Handler+0x7c>)
   81e2a:	429a      	cmp	r2, r3
   81e2c:	d304      	bcc.n	81e38 <Reset_Handler+0x1c>
   81e2e:	4b1d      	ldr	r3, [pc, #116]	; (81ea4 <Reset_Handler+0x88>)
   81e30:	4a1d      	ldr	r2, [pc, #116]	; (81ea8 <Reset_Handler+0x8c>)
   81e32:	429a      	cmp	r2, r3
   81e34:	d30f      	bcc.n	81e56 <Reset_Handler+0x3a>
   81e36:	e01a      	b.n	81e6e <Reset_Handler+0x52>
   81e38:	4b1c      	ldr	r3, [pc, #112]	; (81eac <Reset_Handler+0x90>)
   81e3a:	4c1d      	ldr	r4, [pc, #116]	; (81eb0 <Reset_Handler+0x94>)
   81e3c:	1ae4      	subs	r4, r4, r3
   81e3e:	f024 0403 	bic.w	r4, r4, #3
   81e42:	3404      	adds	r4, #4
   81e44:	2300      	movs	r3, #0
   81e46:	4814      	ldr	r0, [pc, #80]	; (81e98 <Reset_Handler+0x7c>)
   81e48:	4914      	ldr	r1, [pc, #80]	; (81e9c <Reset_Handler+0x80>)
   81e4a:	585a      	ldr	r2, [r3, r1]
   81e4c:	501a      	str	r2, [r3, r0]
   81e4e:	3304      	adds	r3, #4
   81e50:	42a3      	cmp	r3, r4
   81e52:	d1fa      	bne.n	81e4a <Reset_Handler+0x2e>
   81e54:	e7eb      	b.n	81e2e <Reset_Handler+0x12>
   81e56:	4b17      	ldr	r3, [pc, #92]	; (81eb4 <Reset_Handler+0x98>)
   81e58:	4917      	ldr	r1, [pc, #92]	; (81eb8 <Reset_Handler+0x9c>)
   81e5a:	1ac9      	subs	r1, r1, r3
   81e5c:	f021 0103 	bic.w	r1, r1, #3
   81e60:	1d1a      	adds	r2, r3, #4
   81e62:	4411      	add	r1, r2
   81e64:	2200      	movs	r2, #0
   81e66:	f843 2f04 	str.w	r2, [r3, #4]!
   81e6a:	428b      	cmp	r3, r1
   81e6c:	d1fb      	bne.n	81e66 <Reset_Handler+0x4a>
   81e6e:	4a13      	ldr	r2, [pc, #76]	; (81ebc <Reset_Handler+0xa0>)
   81e70:	f022 4360 	bic.w	r3, r2, #3758096384	; 0xe0000000
   81e74:	f023 037f 	bic.w	r3, r3, #127	; 0x7f
   81e78:	4911      	ldr	r1, [pc, #68]	; (81ec0 <Reset_Handler+0xa4>)
   81e7a:	608b      	str	r3, [r1, #8]
   81e7c:	f102 4260 	add.w	r2, r2, #3758096384	; 0xe0000000
   81e80:	f5b2 1f80 	cmp.w	r2, #1048576	; 0x100000
   81e84:	d203      	bcs.n	81e8e <Reset_Handler+0x72>
   81e86:	688a      	ldr	r2, [r1, #8]
   81e88:	f042 5200 	orr.w	r2, r2, #536870912	; 0x20000000
   81e8c:	608a      	str	r2, [r1, #8]
   81e8e:	4b0d      	ldr	r3, [pc, #52]	; (81ec4 <Reset_Handler+0xa8>)
   81e90:	4798      	blx	r3
   81e92:	4b0d      	ldr	r3, [pc, #52]	; (81ec8 <Reset_Handler+0xac>)
   81e94:	4798      	blx	r3
   81e96:	e7fe      	b.n	81e96 <Reset_Handler+0x7a>
   81e98:	20070000 	.word	0x20070000
   81e9c:	0008354c 	.word	0x0008354c
   81ea0:	20070974 	.word	0x20070974
   81ea4:	20070b7c 	.word	0x20070b7c
   81ea8:	20070974 	.word	0x20070974
   81eac:	20070004 	.word	0x20070004
   81eb0:	20070977 	.word	0x20070977
   81eb4:	20070970 	.word	0x20070970
   81eb8:	20070b77 	.word	0x20070b77
   81ebc:	00080000 	.word	0x00080000
   81ec0:	e000ed00 	.word	0xe000ed00
   81ec4:	00082039 	.word	0x00082039
   81ec8:	000808c1 	.word	0x000808c1

00081ecc <SystemCoreClockUpdate>:
   81ecc:	4b3e      	ldr	r3, [pc, #248]	; (81fc8 <SystemCoreClockUpdate+0xfc>)
   81ece:	6b1b      	ldr	r3, [r3, #48]	; 0x30
   81ed0:	f003 0303 	and.w	r3, r3, #3
   81ed4:	2b03      	cmp	r3, #3
   81ed6:	d85f      	bhi.n	81f98 <SystemCoreClockUpdate+0xcc>
   81ed8:	e8df f003 	tbb	[pc, r3]
   81edc:	2b2b0e02 	.word	0x2b2b0e02
   81ee0:	4b3a      	ldr	r3, [pc, #232]	; (81fcc <SystemCoreClockUpdate+0x100>)
   81ee2:	695b      	ldr	r3, [r3, #20]
   81ee4:	f013 0f80 	tst.w	r3, #128	; 0x80
   81ee8:	bf14      	ite	ne
   81eea:	f44f 4200 	movne.w	r2, #32768	; 0x8000
   81eee:	f44f 42fa 	moveq.w	r2, #32000	; 0x7d00
   81ef2:	4b37      	ldr	r3, [pc, #220]	; (81fd0 <SystemCoreClockUpdate+0x104>)
   81ef4:	601a      	str	r2, [r3, #0]
   81ef6:	e04f      	b.n	81f98 <SystemCoreClockUpdate+0xcc>
   81ef8:	4b33      	ldr	r3, [pc, #204]	; (81fc8 <SystemCoreClockUpdate+0xfc>)
   81efa:	6a1b      	ldr	r3, [r3, #32]
   81efc:	f013 7f80 	tst.w	r3, #16777216	; 0x1000000
   81f00:	d003      	beq.n	81f0a <SystemCoreClockUpdate+0x3e>
   81f02:	4a34      	ldr	r2, [pc, #208]	; (81fd4 <SystemCoreClockUpdate+0x108>)
   81f04:	4b32      	ldr	r3, [pc, #200]	; (81fd0 <SystemCoreClockUpdate+0x104>)
   81f06:	601a      	str	r2, [r3, #0]
   81f08:	e046      	b.n	81f98 <SystemCoreClockUpdate+0xcc>
   81f0a:	4a33      	ldr	r2, [pc, #204]	; (81fd8 <SystemCoreClockUpdate+0x10c>)
   81f0c:	4b30      	ldr	r3, [pc, #192]	; (81fd0 <SystemCoreClockUpdate+0x104>)
   81f0e:	601a      	str	r2, [r3, #0]
   81f10:	4b2d      	ldr	r3, [pc, #180]	; (81fc8 <SystemCoreClockUpdate+0xfc>)
   81f12:	6a1b      	ldr	r3, [r3, #32]
   81f14:	f003 0370 	and.w	r3, r3, #112	; 0x70
   81f18:	2b10      	cmp	r3, #16
   81f1a:	d002      	beq.n	81f22 <SystemCoreClockUpdate+0x56>
   81f1c:	2b20      	cmp	r3, #32
   81f1e:	d004      	beq.n	81f2a <SystemCoreClockUpdate+0x5e>
   81f20:	e03a      	b.n	81f98 <SystemCoreClockUpdate+0xcc>
   81f22:	4a2e      	ldr	r2, [pc, #184]	; (81fdc <SystemCoreClockUpdate+0x110>)
   81f24:	4b2a      	ldr	r3, [pc, #168]	; (81fd0 <SystemCoreClockUpdate+0x104>)
   81f26:	601a      	str	r2, [r3, #0]
   81f28:	e036      	b.n	81f98 <SystemCoreClockUpdate+0xcc>
   81f2a:	4a2a      	ldr	r2, [pc, #168]	; (81fd4 <SystemCoreClockUpdate+0x108>)
   81f2c:	4b28      	ldr	r3, [pc, #160]	; (81fd0 <SystemCoreClockUpdate+0x104>)
   81f2e:	601a      	str	r2, [r3, #0]
   81f30:	e032      	b.n	81f98 <SystemCoreClockUpdate+0xcc>
   81f32:	4b25      	ldr	r3, [pc, #148]	; (81fc8 <SystemCoreClockUpdate+0xfc>)
   81f34:	6a1b      	ldr	r3, [r3, #32]
   81f36:	f013 7f80 	tst.w	r3, #16777216	; 0x1000000
   81f3a:	d003      	beq.n	81f44 <SystemCoreClockUpdate+0x78>
   81f3c:	4a25      	ldr	r2, [pc, #148]	; (81fd4 <SystemCoreClockUpdate+0x108>)
   81f3e:	4b24      	ldr	r3, [pc, #144]	; (81fd0 <SystemCoreClockUpdate+0x104>)
   81f40:	601a      	str	r2, [r3, #0]
   81f42:	e012      	b.n	81f6a <SystemCoreClockUpdate+0x9e>
   81f44:	4a24      	ldr	r2, [pc, #144]	; (81fd8 <SystemCoreClockUpdate+0x10c>)
   81f46:	4b22      	ldr	r3, [pc, #136]	; (81fd0 <SystemCoreClockUpdate+0x104>)
   81f48:	601a      	str	r2, [r3, #0]
   81f4a:	4b1f      	ldr	r3, [pc, #124]	; (81fc8 <SystemCoreClockUpdate+0xfc>)
   81f4c:	6a1b      	ldr	r3, [r3, #32]
   81f4e:	f003 0370 	and.w	r3, r3, #112	; 0x70
   81f52:	2b10      	cmp	r3, #16
   81f54:	d002      	beq.n	81f5c <SystemCoreClockUpdate+0x90>
   81f56:	2b20      	cmp	r3, #32
   81f58:	d004      	beq.n	81f64 <SystemCoreClockUpdate+0x98>
   81f5a:	e006      	b.n	81f6a <SystemCoreClockUpdate+0x9e>
   81f5c:	4a1f      	ldr	r2, [pc, #124]	; (81fdc <SystemCoreClockUpdate+0x110>)
   81f5e:	4b1c      	ldr	r3, [pc, #112]	; (81fd0 <SystemCoreClockUpdate+0x104>)
   81f60:	601a      	str	r2, [r3, #0]
   81f62:	e002      	b.n	81f6a <SystemCoreClockUpdate+0x9e>
   81f64:	4a1b      	ldr	r2, [pc, #108]	; (81fd4 <SystemCoreClockUpdate+0x108>)
   81f66:	4b1a      	ldr	r3, [pc, #104]	; (81fd0 <SystemCoreClockUpdate+0x104>)
   81f68:	601a      	str	r2, [r3, #0]
   81f6a:	4b17      	ldr	r3, [pc, #92]	; (81fc8 <SystemCoreClockUpdate+0xfc>)
   81f6c:	6b1b      	ldr	r3, [r3, #48]	; 0x30
   81f6e:	f003 0303 	and.w	r3, r3, #3
   81f72:	2b02      	cmp	r3, #2
   81f74:	d10d      	bne.n	81f92 <SystemCoreClockUpdate+0xc6>
   81f76:	4b14      	ldr	r3, [pc, #80]	; (81fc8 <SystemCoreClockUpdate+0xfc>)
   81f78:	6a98      	ldr	r0, [r3, #40]	; 0x28
   81f7a:	6a99      	ldr	r1, [r3, #40]	; 0x28
   81f7c:	4b14      	ldr	r3, [pc, #80]	; (81fd0 <SystemCoreClockUpdate+0x104>)
   81f7e:	f3c0 400a 	ubfx	r0, r0, #16, #11
   81f82:	681a      	ldr	r2, [r3, #0]
   81f84:	fb00 2202 	mla	r2, r0, r2, r2
   81f88:	b2c9      	uxtb	r1, r1
   81f8a:	fbb2 f2f1 	udiv	r2, r2, r1
   81f8e:	601a      	str	r2, [r3, #0]
   81f90:	e002      	b.n	81f98 <SystemCoreClockUpdate+0xcc>
   81f92:	4a13      	ldr	r2, [pc, #76]	; (81fe0 <SystemCoreClockUpdate+0x114>)
   81f94:	4b0e      	ldr	r3, [pc, #56]	; (81fd0 <SystemCoreClockUpdate+0x104>)
   81f96:	601a      	str	r2, [r3, #0]
   81f98:	4b0b      	ldr	r3, [pc, #44]	; (81fc8 <SystemCoreClockUpdate+0xfc>)
   81f9a:	6b1b      	ldr	r3, [r3, #48]	; 0x30
   81f9c:	f003 0370 	and.w	r3, r3, #112	; 0x70
   81fa0:	2b70      	cmp	r3, #112	; 0x70
   81fa2:	d107      	bne.n	81fb4 <SystemCoreClockUpdate+0xe8>
   81fa4:	4b0a      	ldr	r3, [pc, #40]	; (81fd0 <SystemCoreClockUpdate+0x104>)
   81fa6:	681a      	ldr	r2, [r3, #0]
   81fa8:	490e      	ldr	r1, [pc, #56]	; (81fe4 <SystemCoreClockUpdate+0x118>)
   81faa:	fba1 0202 	umull	r0, r2, r1, r2
   81fae:	0852      	lsrs	r2, r2, #1
   81fb0:	601a      	str	r2, [r3, #0]
   81fb2:	4770      	bx	lr
   81fb4:	4b04      	ldr	r3, [pc, #16]	; (81fc8 <SystemCoreClockUpdate+0xfc>)
   81fb6:	6b19      	ldr	r1, [r3, #48]	; 0x30
   81fb8:	4b05      	ldr	r3, [pc, #20]	; (81fd0 <SystemCoreClockUpdate+0x104>)
   81fba:	f3c1 1102 	ubfx	r1, r1, #4, #3
   81fbe:	681a      	ldr	r2, [r3, #0]
   81fc0:	40ca      	lsrs	r2, r1
   81fc2:	601a      	str	r2, [r3, #0]
   81fc4:	4770      	bx	lr
   81fc6:	bf00      	nop
   81fc8:	400e0600 	.word	0x400e0600
   81fcc:	400e1a10 	.word	0x400e1a10
   81fd0:	20070130 	.word	0x20070130
   81fd4:	00b71b00 	.word	0x00b71b00
   81fd8:	003d0900 	.word	0x003d0900
   81fdc:	007a1200 	.word	0x007a1200
   81fe0:	0e4e1c00 	.word	0x0e4e1c00
   81fe4:	aaaaaaab 	.word	0xaaaaaaab

00081fe8 <_sbrk>:
   81fe8:	4b09      	ldr	r3, [pc, #36]	; (82010 <_sbrk+0x28>)
   81fea:	681b      	ldr	r3, [r3, #0]
   81fec:	b913      	cbnz	r3, 81ff4 <_sbrk+0xc>
   81fee:	4a09      	ldr	r2, [pc, #36]	; (82014 <_sbrk+0x2c>)
   81ff0:	4b07      	ldr	r3, [pc, #28]	; (82010 <_sbrk+0x28>)
   81ff2:	601a      	str	r2, [r3, #0]
   81ff4:	4b06      	ldr	r3, [pc, #24]	; (82010 <_sbrk+0x28>)
   81ff6:	681b      	ldr	r3, [r3, #0]
   81ff8:	181a      	adds	r2, r3, r0
   81ffa:	4907      	ldr	r1, [pc, #28]	; (82018 <_sbrk+0x30>)
   81ffc:	4291      	cmp	r1, r2
   81ffe:	db04      	blt.n	8200a <_sbrk+0x22>
   82000:	4610      	mov	r0, r2
   82002:	4a03      	ldr	r2, [pc, #12]	; (82010 <_sbrk+0x28>)
   82004:	6010      	str	r0, [r2, #0]
   82006:	4618      	mov	r0, r3
   82008:	4770      	bx	lr
   8200a:	f04f 30ff 	mov.w	r0, #4294967295
   8200e:	4770      	bx	lr
   82010:	20070aa0 	.word	0x20070aa0
   82014:	20072b80 	.word	0x20072b80
   82018:	20087ffc 	.word	0x20087ffc

0008201c <_close>:
   8201c:	f04f 30ff 	mov.w	r0, #4294967295
   82020:	4770      	bx	lr
   82022:	bf00      	nop

00082024 <_fstat>:
   82024:	f44f 5300 	mov.w	r3, #8192	; 0x2000
   82028:	604b      	str	r3, [r1, #4]
   8202a:	2000      	movs	r0, #0
   8202c:	4770      	bx	lr
   8202e:	bf00      	nop

00082030 <_isatty>:
   82030:	2001      	movs	r0, #1
   82032:	4770      	bx	lr

00082034 <_lseek>:
   82034:	2000      	movs	r0, #0
   82036:	4770      	bx	lr

00082038 <__libc_init_array>:
   82038:	b570      	push	{r4, r5, r6, lr}
   8203a:	4e0f      	ldr	r6, [pc, #60]	; (82078 <__libc_init_array+0x40>)
   8203c:	4d0f      	ldr	r5, [pc, #60]	; (8207c <__libc_init_array+0x44>)
   8203e:	1b76      	subs	r6, r6, r5
   82040:	10b6      	asrs	r6, r6, #2
   82042:	d007      	beq.n	82054 <__libc_init_array+0x1c>
   82044:	3d04      	subs	r5, #4
   82046:	2400      	movs	r4, #0
   82048:	3401      	adds	r4, #1
   8204a:	f855 3f04 	ldr.w	r3, [r5, #4]!
   8204e:	4798      	blx	r3
   82050:	42a6      	cmp	r6, r4
   82052:	d1f9      	bne.n	82048 <__libc_init_array+0x10>
   82054:	4e0a      	ldr	r6, [pc, #40]	; (82080 <__libc_init_array+0x48>)
   82056:	4d0b      	ldr	r5, [pc, #44]	; (82084 <__libc_init_array+0x4c>)
   82058:	f001 fa66 	bl	83528 <_init>
   8205c:	1b76      	subs	r6, r6, r5
   8205e:	10b6      	asrs	r6, r6, #2
   82060:	d008      	beq.n	82074 <__libc_init_array+0x3c>
   82062:	3d04      	subs	r5, #4
   82064:	2400      	movs	r4, #0
   82066:	3401      	adds	r4, #1
   82068:	f855 3f04 	ldr.w	r3, [r5, #4]!
   8206c:	4798      	blx	r3
   8206e:	42a6      	cmp	r6, r4
   82070:	d1f9      	bne.n	82066 <__libc_init_array+0x2e>
   82072:	bd70      	pop	{r4, r5, r6, pc}
   82074:	bd70      	pop	{r4, r5, r6, pc}
   82076:	bf00      	nop
   82078:	00083534 	.word	0x00083534
   8207c:	00083534 	.word	0x00083534
   82080:	0008353c 	.word	0x0008353c
   82084:	00083534 	.word	0x00083534

00082088 <memset>:
   82088:	b4f0      	push	{r4, r5, r6, r7}
   8208a:	0784      	lsls	r4, r0, #30
   8208c:	d043      	beq.n	82116 <memset+0x8e>
   8208e:	1e54      	subs	r4, r2, #1
   82090:	2a00      	cmp	r2, #0
   82092:	d03e      	beq.n	82112 <memset+0x8a>
   82094:	b2cd      	uxtb	r5, r1
   82096:	4603      	mov	r3, r0
   82098:	e003      	b.n	820a2 <memset+0x1a>
   8209a:	1e62      	subs	r2, r4, #1
   8209c:	2c00      	cmp	r4, #0
   8209e:	d038      	beq.n	82112 <memset+0x8a>
   820a0:	4614      	mov	r4, r2
   820a2:	f803 5b01 	strb.w	r5, [r3], #1
   820a6:	079a      	lsls	r2, r3, #30
   820a8:	d1f7      	bne.n	8209a <memset+0x12>
   820aa:	2c03      	cmp	r4, #3
   820ac:	d92a      	bls.n	82104 <memset+0x7c>
   820ae:	b2cd      	uxtb	r5, r1
   820b0:	ea45 2505 	orr.w	r5, r5, r5, lsl #8
   820b4:	2c0f      	cmp	r4, #15
   820b6:	ea45 4505 	orr.w	r5, r5, r5, lsl #16
   820ba:	d915      	bls.n	820e8 <memset+0x60>
   820bc:	f1a4 0710 	sub.w	r7, r4, #16
   820c0:	093f      	lsrs	r7, r7, #4
   820c2:	f103 0610 	add.w	r6, r3, #16
   820c6:	eb06 1607 	add.w	r6, r6, r7, lsl #4
   820ca:	461a      	mov	r2, r3
   820cc:	6015      	str	r5, [r2, #0]
   820ce:	6055      	str	r5, [r2, #4]
   820d0:	6095      	str	r5, [r2, #8]
   820d2:	60d5      	str	r5, [r2, #12]
   820d4:	3210      	adds	r2, #16
   820d6:	42b2      	cmp	r2, r6
   820d8:	d1f8      	bne.n	820cc <memset+0x44>
   820da:	f004 040f 	and.w	r4, r4, #15
   820de:	3701      	adds	r7, #1
   820e0:	2c03      	cmp	r4, #3
   820e2:	eb03 1307 	add.w	r3, r3, r7, lsl #4
   820e6:	d90d      	bls.n	82104 <memset+0x7c>
   820e8:	461e      	mov	r6, r3
   820ea:	4622      	mov	r2, r4
   820ec:	3a04      	subs	r2, #4
   820ee:	2a03      	cmp	r2, #3
   820f0:	f846 5b04 	str.w	r5, [r6], #4
   820f4:	d8fa      	bhi.n	820ec <memset+0x64>
   820f6:	1f22      	subs	r2, r4, #4
   820f8:	f022 0203 	bic.w	r2, r2, #3
   820fc:	3204      	adds	r2, #4
   820fe:	4413      	add	r3, r2
   82100:	f004 0403 	and.w	r4, r4, #3
   82104:	b12c      	cbz	r4, 82112 <memset+0x8a>
   82106:	b2c9      	uxtb	r1, r1
   82108:	441c      	add	r4, r3
   8210a:	f803 1b01 	strb.w	r1, [r3], #1
   8210e:	42a3      	cmp	r3, r4
   82110:	d1fb      	bne.n	8210a <memset+0x82>
   82112:	bcf0      	pop	{r4, r5, r6, r7}
   82114:	4770      	bx	lr
   82116:	4614      	mov	r4, r2
   82118:	4603      	mov	r3, r0
   8211a:	e7c6      	b.n	820aa <memset+0x22>

0008211c <setbuf>:
   8211c:	2900      	cmp	r1, #0
   8211e:	bf0c      	ite	eq
   82120:	2202      	moveq	r2, #2
   82122:	2200      	movne	r2, #0
   82124:	f44f 6380 	mov.w	r3, #1024	; 0x400
   82128:	f000 b80e 	b.w	82148 <setvbuf>

0008212c <setjmp>:
   8212c:	46ec      	mov	ip, sp
   8212e:	e8a0 5ff0 	stmia.w	r0!, {r4, r5, r6, r7, r8, r9, sl, fp, ip, lr}
   82132:	f04f 0000 	mov.w	r0, #0
   82136:	4770      	bx	lr

00082138 <longjmp>:
   82138:	e8b0 5ff0 	ldmia.w	r0!, {r4, r5, r6, r7, r8, r9, sl, fp, ip, lr}
   8213c:	46e5      	mov	sp, ip
   8213e:	0008      	movs	r0, r1
   82140:	bf08      	it	eq
   82142:	2001      	moveq	r0, #1
   82144:	4770      	bx	lr
   82146:	bf00      	nop

00082148 <setvbuf>:
   82148:	e92d 41f0 	stmdb	sp!, {r4, r5, r6, r7, r8, lr}
   8214c:	4d3c      	ldr	r5, [pc, #240]	; (82240 <setvbuf+0xf8>)
   8214e:	4604      	mov	r4, r0
   82150:	682d      	ldr	r5, [r5, #0]
   82152:	4688      	mov	r8, r1
   82154:	4616      	mov	r6, r2
   82156:	461f      	mov	r7, r3
   82158:	b115      	cbz	r5, 82160 <setvbuf+0x18>
   8215a:	6bab      	ldr	r3, [r5, #56]	; 0x38
   8215c:	2b00      	cmp	r3, #0
   8215e:	d04f      	beq.n	82200 <setvbuf+0xb8>
   82160:	2e02      	cmp	r6, #2
   82162:	d830      	bhi.n	821c6 <setvbuf+0x7e>
   82164:	2f00      	cmp	r7, #0
   82166:	db2e      	blt.n	821c6 <setvbuf+0x7e>
   82168:	4628      	mov	r0, r5
   8216a:	4621      	mov	r1, r4
   8216c:	f000 f9d6 	bl	8251c <_fflush_r>
   82170:	89a3      	ldrh	r3, [r4, #12]
   82172:	2200      	movs	r2, #0
   82174:	6062      	str	r2, [r4, #4]
   82176:	61a2      	str	r2, [r4, #24]
   82178:	061a      	lsls	r2, r3, #24
   8217a:	d428      	bmi.n	821ce <setvbuf+0x86>
   8217c:	f023 0383 	bic.w	r3, r3, #131	; 0x83
   82180:	b29b      	uxth	r3, r3
   82182:	2e02      	cmp	r6, #2
   82184:	81a3      	strh	r3, [r4, #12]
   82186:	d02d      	beq.n	821e4 <setvbuf+0x9c>
   82188:	f1b8 0f00 	cmp.w	r8, #0
   8218c:	d03c      	beq.n	82208 <setvbuf+0xc0>
   8218e:	2e01      	cmp	r6, #1
   82190:	d013      	beq.n	821ba <setvbuf+0x72>
   82192:	b29b      	uxth	r3, r3
   82194:	f003 0008 	and.w	r0, r3, #8
   82198:	4a2a      	ldr	r2, [pc, #168]	; (82244 <setvbuf+0xfc>)
   8219a:	b280      	uxth	r0, r0
   8219c:	63ea      	str	r2, [r5, #60]	; 0x3c
   8219e:	f8c4 8000 	str.w	r8, [r4]
   821a2:	f8c4 8010 	str.w	r8, [r4, #16]
   821a6:	6167      	str	r7, [r4, #20]
   821a8:	b178      	cbz	r0, 821ca <setvbuf+0x82>
   821aa:	f013 0f03 	tst.w	r3, #3
   821ae:	bf18      	it	ne
   821b0:	2700      	movne	r7, #0
   821b2:	60a7      	str	r7, [r4, #8]
   821b4:	2000      	movs	r0, #0
   821b6:	e8bd 81f0 	ldmia.w	sp!, {r4, r5, r6, r7, r8, pc}
   821ba:	f043 0301 	orr.w	r3, r3, #1
   821be:	427a      	negs	r2, r7
   821c0:	81a3      	strh	r3, [r4, #12]
   821c2:	61a2      	str	r2, [r4, #24]
   821c4:	e7e5      	b.n	82192 <setvbuf+0x4a>
   821c6:	f04f 30ff 	mov.w	r0, #4294967295
   821ca:	e8bd 81f0 	ldmia.w	sp!, {r4, r5, r6, r7, r8, pc}
   821ce:	4628      	mov	r0, r5
   821d0:	6921      	ldr	r1, [r4, #16]
   821d2:	f000 faa3 	bl	8271c <_free_r>
   821d6:	89a3      	ldrh	r3, [r4, #12]
   821d8:	2e02      	cmp	r6, #2
   821da:	f023 0383 	bic.w	r3, r3, #131	; 0x83
   821de:	b29b      	uxth	r3, r3
   821e0:	81a3      	strh	r3, [r4, #12]
   821e2:	d1d1      	bne.n	82188 <setvbuf+0x40>
   821e4:	2000      	movs	r0, #0
   821e6:	f104 0243 	add.w	r2, r4, #67	; 0x43
   821ea:	f043 0302 	orr.w	r3, r3, #2
   821ee:	2500      	movs	r5, #0
   821f0:	2101      	movs	r1, #1
   821f2:	81a3      	strh	r3, [r4, #12]
   821f4:	60a5      	str	r5, [r4, #8]
   821f6:	6022      	str	r2, [r4, #0]
   821f8:	6122      	str	r2, [r4, #16]
   821fa:	6161      	str	r1, [r4, #20]
   821fc:	e8bd 81f0 	ldmia.w	sp!, {r4, r5, r6, r7, r8, pc}
   82200:	4628      	mov	r0, r5
   82202:	f000 f9a7 	bl	82554 <__sinit>
   82206:	e7ab      	b.n	82160 <setvbuf+0x18>
   82208:	2f00      	cmp	r7, #0
   8220a:	bf08      	it	eq
   8220c:	f44f 6780 	moveq.w	r7, #1024	; 0x400
   82210:	4638      	mov	r0, r7
   82212:	f000 fbe3 	bl	829dc <malloc>
   82216:	4680      	mov	r8, r0
   82218:	b128      	cbz	r0, 82226 <setvbuf+0xde>
   8221a:	89a3      	ldrh	r3, [r4, #12]
   8221c:	f043 0380 	orr.w	r3, r3, #128	; 0x80
   82220:	b29b      	uxth	r3, r3
   82222:	81a3      	strh	r3, [r4, #12]
   82224:	e7b3      	b.n	8218e <setvbuf+0x46>
   82226:	f44f 6080 	mov.w	r0, #1024	; 0x400
   8222a:	f000 fbd7 	bl	829dc <malloc>
   8222e:	4680      	mov	r8, r0
   82230:	b918      	cbnz	r0, 8223a <setvbuf+0xf2>
   82232:	89a3      	ldrh	r3, [r4, #12]
   82234:	f04f 30ff 	mov.w	r0, #4294967295
   82238:	e7d5      	b.n	821e6 <setvbuf+0x9e>
   8223a:	f44f 6780 	mov.w	r7, #1024	; 0x400
   8223e:	e7ec      	b.n	8221a <setvbuf+0xd2>
   82240:	20070560 	.word	0x20070560
   82244:	00082549 	.word	0x00082549

00082248 <__swbuf_r>:
   82248:	b5f8      	push	{r3, r4, r5, r6, r7, lr}
   8224a:	460d      	mov	r5, r1
   8224c:	4614      	mov	r4, r2
   8224e:	4607      	mov	r7, r0
   82250:	b110      	cbz	r0, 82258 <__swbuf_r+0x10>
   82252:	6b83      	ldr	r3, [r0, #56]	; 0x38
   82254:	2b00      	cmp	r3, #0
   82256:	d048      	beq.n	822ea <__swbuf_r+0xa2>
   82258:	89a2      	ldrh	r2, [r4, #12]
   8225a:	69a0      	ldr	r0, [r4, #24]
   8225c:	b293      	uxth	r3, r2
   8225e:	60a0      	str	r0, [r4, #8]
   82260:	0718      	lsls	r0, r3, #28
   82262:	d538      	bpl.n	822d6 <__swbuf_r+0x8e>
   82264:	6926      	ldr	r6, [r4, #16]
   82266:	2e00      	cmp	r6, #0
   82268:	d035      	beq.n	822d6 <__swbuf_r+0x8e>
   8226a:	0499      	lsls	r1, r3, #18
   8226c:	b2ed      	uxtb	r5, r5
   8226e:	d515      	bpl.n	8229c <__swbuf_r+0x54>
   82270:	6823      	ldr	r3, [r4, #0]
   82272:	6962      	ldr	r2, [r4, #20]
   82274:	1b9e      	subs	r6, r3, r6
   82276:	4296      	cmp	r6, r2
   82278:	da1c      	bge.n	822b4 <__swbuf_r+0x6c>
   8227a:	3601      	adds	r6, #1
   8227c:	68a2      	ldr	r2, [r4, #8]
   8227e:	1c59      	adds	r1, r3, #1
   82280:	3a01      	subs	r2, #1
   82282:	60a2      	str	r2, [r4, #8]
   82284:	6021      	str	r1, [r4, #0]
   82286:	701d      	strb	r5, [r3, #0]
   82288:	6963      	ldr	r3, [r4, #20]
   8228a:	42b3      	cmp	r3, r6
   8228c:	d01a      	beq.n	822c4 <__swbuf_r+0x7c>
   8228e:	89a3      	ldrh	r3, [r4, #12]
   82290:	07db      	lsls	r3, r3, #31
   82292:	d501      	bpl.n	82298 <__swbuf_r+0x50>
   82294:	2d0a      	cmp	r5, #10
   82296:	d015      	beq.n	822c4 <__swbuf_r+0x7c>
   82298:	4628      	mov	r0, r5
   8229a:	bdf8      	pop	{r3, r4, r5, r6, r7, pc}
   8229c:	6e63      	ldr	r3, [r4, #100]	; 0x64
   8229e:	f442 5200 	orr.w	r2, r2, #8192	; 0x2000
   822a2:	f423 5300 	bic.w	r3, r3, #8192	; 0x2000
   822a6:	6663      	str	r3, [r4, #100]	; 0x64
   822a8:	6823      	ldr	r3, [r4, #0]
   822aa:	81a2      	strh	r2, [r4, #12]
   822ac:	6962      	ldr	r2, [r4, #20]
   822ae:	1b9e      	subs	r6, r3, r6
   822b0:	4296      	cmp	r6, r2
   822b2:	dbe2      	blt.n	8227a <__swbuf_r+0x32>
   822b4:	4638      	mov	r0, r7
   822b6:	4621      	mov	r1, r4
   822b8:	f000 f930 	bl	8251c <_fflush_r>
   822bc:	b940      	cbnz	r0, 822d0 <__swbuf_r+0x88>
   822be:	6823      	ldr	r3, [r4, #0]
   822c0:	2601      	movs	r6, #1
   822c2:	e7db      	b.n	8227c <__swbuf_r+0x34>
   822c4:	4638      	mov	r0, r7
   822c6:	4621      	mov	r1, r4
   822c8:	f000 f928 	bl	8251c <_fflush_r>
   822cc:	2800      	cmp	r0, #0
   822ce:	d0e3      	beq.n	82298 <__swbuf_r+0x50>
   822d0:	f04f 30ff 	mov.w	r0, #4294967295
   822d4:	bdf8      	pop	{r3, r4, r5, r6, r7, pc}
   822d6:	4638      	mov	r0, r7
   822d8:	4621      	mov	r1, r4
   822da:	f000 f809 	bl	822f0 <__swsetup_r>
   822de:	2800      	cmp	r0, #0
   822e0:	d1f6      	bne.n	822d0 <__swbuf_r+0x88>
   822e2:	89a2      	ldrh	r2, [r4, #12]
   822e4:	6926      	ldr	r6, [r4, #16]
   822e6:	b293      	uxth	r3, r2
   822e8:	e7bf      	b.n	8226a <__swbuf_r+0x22>
   822ea:	f000 f933 	bl	82554 <__sinit>
   822ee:	e7b3      	b.n	82258 <__swbuf_r+0x10>

000822f0 <__swsetup_r>:
   822f0:	4b2f      	ldr	r3, [pc, #188]	; (823b0 <__swsetup_r+0xc0>)
   822f2:	b570      	push	{r4, r5, r6, lr}
   822f4:	4606      	mov	r6, r0
   822f6:	6818      	ldr	r0, [r3, #0]
   822f8:	460c      	mov	r4, r1
   822fa:	b110      	cbz	r0, 82302 <__swsetup_r+0x12>
   822fc:	6b82      	ldr	r2, [r0, #56]	; 0x38
   822fe:	2a00      	cmp	r2, #0
   82300:	d036      	beq.n	82370 <__swsetup_r+0x80>
   82302:	89a5      	ldrh	r5, [r4, #12]
   82304:	b2ab      	uxth	r3, r5
   82306:	0719      	lsls	r1, r3, #28
   82308:	d50c      	bpl.n	82324 <__swsetup_r+0x34>
   8230a:	6922      	ldr	r2, [r4, #16]
   8230c:	b1aa      	cbz	r2, 8233a <__swsetup_r+0x4a>
   8230e:	f013 0101 	ands.w	r1, r3, #1
   82312:	d01e      	beq.n	82352 <__swsetup_r+0x62>
   82314:	6963      	ldr	r3, [r4, #20]
   82316:	2100      	movs	r1, #0
   82318:	425b      	negs	r3, r3
   8231a:	61a3      	str	r3, [r4, #24]
   8231c:	60a1      	str	r1, [r4, #8]
   8231e:	b1f2      	cbz	r2, 8235e <__swsetup_r+0x6e>
   82320:	2000      	movs	r0, #0
   82322:	bd70      	pop	{r4, r5, r6, pc}
   82324:	06da      	lsls	r2, r3, #27
   82326:	d53a      	bpl.n	8239e <__swsetup_r+0xae>
   82328:	075b      	lsls	r3, r3, #29
   8232a:	d424      	bmi.n	82376 <__swsetup_r+0x86>
   8232c:	6922      	ldr	r2, [r4, #16]
   8232e:	f045 0308 	orr.w	r3, r5, #8
   82332:	81a3      	strh	r3, [r4, #12]
   82334:	b29b      	uxth	r3, r3
   82336:	2a00      	cmp	r2, #0
   82338:	d1e9      	bne.n	8230e <__swsetup_r+0x1e>
   8233a:	f403 7120 	and.w	r1, r3, #640	; 0x280
   8233e:	f5b1 7f00 	cmp.w	r1, #512	; 0x200
   82342:	d0e4      	beq.n	8230e <__swsetup_r+0x1e>
   82344:	4630      	mov	r0, r6
   82346:	4621      	mov	r1, r4
   82348:	f000 fad8 	bl	828fc <__smakebuf_r>
   8234c:	89a3      	ldrh	r3, [r4, #12]
   8234e:	6922      	ldr	r2, [r4, #16]
   82350:	e7dd      	b.n	8230e <__swsetup_r+0x1e>
   82352:	0798      	lsls	r0, r3, #30
   82354:	bf58      	it	pl
   82356:	6961      	ldrpl	r1, [r4, #20]
   82358:	60a1      	str	r1, [r4, #8]
   8235a:	2a00      	cmp	r2, #0
   8235c:	d1e0      	bne.n	82320 <__swsetup_r+0x30>
   8235e:	89a3      	ldrh	r3, [r4, #12]
   82360:	061a      	lsls	r2, r3, #24
   82362:	d5dd      	bpl.n	82320 <__swsetup_r+0x30>
   82364:	f043 0340 	orr.w	r3, r3, #64	; 0x40
   82368:	81a3      	strh	r3, [r4, #12]
   8236a:	f04f 30ff 	mov.w	r0, #4294967295
   8236e:	bd70      	pop	{r4, r5, r6, pc}
   82370:	f000 f8f0 	bl	82554 <__sinit>
   82374:	e7c5      	b.n	82302 <__swsetup_r+0x12>
   82376:	6b21      	ldr	r1, [r4, #48]	; 0x30
   82378:	b149      	cbz	r1, 8238e <__swsetup_r+0x9e>
   8237a:	f104 0340 	add.w	r3, r4, #64	; 0x40
   8237e:	4299      	cmp	r1, r3
   82380:	d003      	beq.n	8238a <__swsetup_r+0x9a>
   82382:	4630      	mov	r0, r6
   82384:	f000 f9ca 	bl	8271c <_free_r>
   82388:	89a5      	ldrh	r5, [r4, #12]
   8238a:	2300      	movs	r3, #0
   8238c:	6323      	str	r3, [r4, #48]	; 0x30
   8238e:	6922      	ldr	r2, [r4, #16]
   82390:	f025 0524 	bic.w	r5, r5, #36	; 0x24
   82394:	2100      	movs	r1, #0
   82396:	b2ad      	uxth	r5, r5
   82398:	6022      	str	r2, [r4, #0]
   8239a:	6061      	str	r1, [r4, #4]
   8239c:	e7c7      	b.n	8232e <__swsetup_r+0x3e>
   8239e:	f045 0540 	orr.w	r5, r5, #64	; 0x40
   823a2:	2309      	movs	r3, #9
   823a4:	6033      	str	r3, [r6, #0]
   823a6:	f04f 30ff 	mov.w	r0, #4294967295
   823aa:	81a5      	strh	r5, [r4, #12]
   823ac:	bd70      	pop	{r4, r5, r6, pc}
   823ae:	bf00      	nop
   823b0:	20070560 	.word	0x20070560

000823b4 <register_fini>:
   823b4:	4b02      	ldr	r3, [pc, #8]	; (823c0 <register_fini+0xc>)
   823b6:	b113      	cbz	r3, 823be <register_fini+0xa>
   823b8:	4802      	ldr	r0, [pc, #8]	; (823c4 <register_fini+0x10>)
   823ba:	f000 b805 	b.w	823c8 <atexit>
   823be:	4770      	bx	lr
   823c0:	00000000 	.word	0x00000000
   823c4:	00082651 	.word	0x00082651

000823c8 <atexit>:
   823c8:	4601      	mov	r1, r0
   823ca:	2000      	movs	r0, #0
   823cc:	4602      	mov	r2, r0
   823ce:	4603      	mov	r3, r0
   823d0:	f000 be14 	b.w	82ffc <__register_exitproc>

000823d4 <__sflush_r>:
   823d4:	898b      	ldrh	r3, [r1, #12]
   823d6:	e92d 41f0 	stmdb	sp!, {r4, r5, r6, r7, r8, lr}
   823da:	b29a      	uxth	r2, r3
   823dc:	460d      	mov	r5, r1
   823de:	0711      	lsls	r1, r2, #28
   823e0:	4680      	mov	r8, r0
   823e2:	d43c      	bmi.n	8245e <__sflush_r+0x8a>
   823e4:	686a      	ldr	r2, [r5, #4]
   823e6:	f443 6300 	orr.w	r3, r3, #2048	; 0x800
   823ea:	2a00      	cmp	r2, #0
   823ec:	81ab      	strh	r3, [r5, #12]
   823ee:	dd59      	ble.n	824a4 <__sflush_r+0xd0>
   823f0:	6aac      	ldr	r4, [r5, #40]	; 0x28
   823f2:	2c00      	cmp	r4, #0
   823f4:	d04b      	beq.n	8248e <__sflush_r+0xba>
   823f6:	b29b      	uxth	r3, r3
   823f8:	f403 5280 	and.w	r2, r3, #4096	; 0x1000
   823fc:	2100      	movs	r1, #0
   823fe:	b292      	uxth	r2, r2
   82400:	f8d8 6000 	ldr.w	r6, [r8]
   82404:	f8c8 1000 	str.w	r1, [r8]
   82408:	2a00      	cmp	r2, #0
   8240a:	d04f      	beq.n	824ac <__sflush_r+0xd8>
   8240c:	6d2a      	ldr	r2, [r5, #80]	; 0x50
   8240e:	075f      	lsls	r7, r3, #29
   82410:	d505      	bpl.n	8241e <__sflush_r+0x4a>
   82412:	6869      	ldr	r1, [r5, #4]
   82414:	6b2b      	ldr	r3, [r5, #48]	; 0x30
   82416:	1a52      	subs	r2, r2, r1
   82418:	b10b      	cbz	r3, 8241e <__sflush_r+0x4a>
   8241a:	6beb      	ldr	r3, [r5, #60]	; 0x3c
   8241c:	1ad2      	subs	r2, r2, r3
   8241e:	4640      	mov	r0, r8
   82420:	69e9      	ldr	r1, [r5, #28]
   82422:	2300      	movs	r3, #0
   82424:	47a0      	blx	r4
   82426:	1c44      	adds	r4, r0, #1
   82428:	d04a      	beq.n	824c0 <__sflush_r+0xec>
   8242a:	89ab      	ldrh	r3, [r5, #12]
   8242c:	692a      	ldr	r2, [r5, #16]
   8242e:	f423 6300 	bic.w	r3, r3, #2048	; 0x800
   82432:	b29b      	uxth	r3, r3
   82434:	2100      	movs	r1, #0
   82436:	602a      	str	r2, [r5, #0]
   82438:	04da      	lsls	r2, r3, #19
   8243a:	81ab      	strh	r3, [r5, #12]
   8243c:	6069      	str	r1, [r5, #4]
   8243e:	d44c      	bmi.n	824da <__sflush_r+0x106>
   82440:	6b29      	ldr	r1, [r5, #48]	; 0x30
   82442:	f8c8 6000 	str.w	r6, [r8]
   82446:	b311      	cbz	r1, 8248e <__sflush_r+0xba>
   82448:	f105 0340 	add.w	r3, r5, #64	; 0x40
   8244c:	4299      	cmp	r1, r3
   8244e:	d002      	beq.n	82456 <__sflush_r+0x82>
   82450:	4640      	mov	r0, r8
   82452:	f000 f963 	bl	8271c <_free_r>
   82456:	2000      	movs	r0, #0
   82458:	6328      	str	r0, [r5, #48]	; 0x30
   8245a:	e8bd 81f0 	ldmia.w	sp!, {r4, r5, r6, r7, r8, pc}
   8245e:	692e      	ldr	r6, [r5, #16]
   82460:	b1ae      	cbz	r6, 8248e <__sflush_r+0xba>
   82462:	0791      	lsls	r1, r2, #30
   82464:	682c      	ldr	r4, [r5, #0]
   82466:	bf0c      	ite	eq
   82468:	696b      	ldreq	r3, [r5, #20]
   8246a:	2300      	movne	r3, #0
   8246c:	602e      	str	r6, [r5, #0]
   8246e:	1ba4      	subs	r4, r4, r6
   82470:	60ab      	str	r3, [r5, #8]
   82472:	e00a      	b.n	8248a <__sflush_r+0xb6>
   82474:	4632      	mov	r2, r6
   82476:	4623      	mov	r3, r4
   82478:	6a6f      	ldr	r7, [r5, #36]	; 0x24
   8247a:	4640      	mov	r0, r8
   8247c:	69e9      	ldr	r1, [r5, #28]
   8247e:	47b8      	blx	r7
   82480:	2800      	cmp	r0, #0
   82482:	ebc0 0404 	rsb	r4, r0, r4
   82486:	4406      	add	r6, r0
   82488:	dd04      	ble.n	82494 <__sflush_r+0xc0>
   8248a:	2c00      	cmp	r4, #0
   8248c:	dcf2      	bgt.n	82474 <__sflush_r+0xa0>
   8248e:	2000      	movs	r0, #0
   82490:	e8bd 81f0 	ldmia.w	sp!, {r4, r5, r6, r7, r8, pc}
   82494:	89ab      	ldrh	r3, [r5, #12]
   82496:	f04f 30ff 	mov.w	r0, #4294967295
   8249a:	f043 0340 	orr.w	r3, r3, #64	; 0x40
   8249e:	81ab      	strh	r3, [r5, #12]
   824a0:	e8bd 81f0 	ldmia.w	sp!, {r4, r5, r6, r7, r8, pc}
   824a4:	6bea      	ldr	r2, [r5, #60]	; 0x3c
   824a6:	2a00      	cmp	r2, #0
   824a8:	dca2      	bgt.n	823f0 <__sflush_r+0x1c>
   824aa:	e7f0      	b.n	8248e <__sflush_r+0xba>
   824ac:	2301      	movs	r3, #1
   824ae:	4640      	mov	r0, r8
   824b0:	69e9      	ldr	r1, [r5, #28]
   824b2:	47a0      	blx	r4
   824b4:	1c43      	adds	r3, r0, #1
   824b6:	4602      	mov	r2, r0
   824b8:	d01e      	beq.n	824f8 <__sflush_r+0x124>
   824ba:	89ab      	ldrh	r3, [r5, #12]
   824bc:	6aac      	ldr	r4, [r5, #40]	; 0x28
   824be:	e7a6      	b.n	8240e <__sflush_r+0x3a>
   824c0:	f8d8 3000 	ldr.w	r3, [r8]
   824c4:	b95b      	cbnz	r3, 824de <__sflush_r+0x10a>
   824c6:	89aa      	ldrh	r2, [r5, #12]
   824c8:	6929      	ldr	r1, [r5, #16]
   824ca:	f422 6200 	bic.w	r2, r2, #2048	; 0x800
   824ce:	b292      	uxth	r2, r2
   824d0:	606b      	str	r3, [r5, #4]
   824d2:	04d3      	lsls	r3, r2, #19
   824d4:	81aa      	strh	r2, [r5, #12]
   824d6:	6029      	str	r1, [r5, #0]
   824d8:	d5b2      	bpl.n	82440 <__sflush_r+0x6c>
   824da:	6528      	str	r0, [r5, #80]	; 0x50
   824dc:	e7b0      	b.n	82440 <__sflush_r+0x6c>
   824de:	2b1d      	cmp	r3, #29
   824e0:	d001      	beq.n	824e6 <__sflush_r+0x112>
   824e2:	2b16      	cmp	r3, #22
   824e4:	d113      	bne.n	8250e <__sflush_r+0x13a>
   824e6:	89a9      	ldrh	r1, [r5, #12]
   824e8:	692b      	ldr	r3, [r5, #16]
   824ea:	f421 6100 	bic.w	r1, r1, #2048	; 0x800
   824ee:	2200      	movs	r2, #0
   824f0:	81a9      	strh	r1, [r5, #12]
   824f2:	602b      	str	r3, [r5, #0]
   824f4:	606a      	str	r2, [r5, #4]
   824f6:	e7a3      	b.n	82440 <__sflush_r+0x6c>
   824f8:	f8d8 3000 	ldr.w	r3, [r8]
   824fc:	2b00      	cmp	r3, #0
   824fe:	d0dc      	beq.n	824ba <__sflush_r+0xe6>
   82500:	2b1d      	cmp	r3, #29
   82502:	d001      	beq.n	82508 <__sflush_r+0x134>
   82504:	2b16      	cmp	r3, #22
   82506:	d1c5      	bne.n	82494 <__sflush_r+0xc0>
   82508:	f8c8 6000 	str.w	r6, [r8]
   8250c:	e7bf      	b.n	8248e <__sflush_r+0xba>
   8250e:	89ab      	ldrh	r3, [r5, #12]
   82510:	f043 0340 	orr.w	r3, r3, #64	; 0x40
   82514:	81ab      	strh	r3, [r5, #12]
   82516:	e8bd 81f0 	ldmia.w	sp!, {r4, r5, r6, r7, r8, pc}
   8251a:	bf00      	nop

0008251c <_fflush_r>:
   8251c:	b510      	push	{r4, lr}
   8251e:	4604      	mov	r4, r0
   82520:	b082      	sub	sp, #8
   82522:	b108      	cbz	r0, 82528 <_fflush_r+0xc>
   82524:	6b83      	ldr	r3, [r0, #56]	; 0x38
   82526:	b153      	cbz	r3, 8253e <_fflush_r+0x22>
   82528:	f9b1 000c 	ldrsh.w	r0, [r1, #12]
   8252c:	b908      	cbnz	r0, 82532 <_fflush_r+0x16>
   8252e:	b002      	add	sp, #8
   82530:	bd10      	pop	{r4, pc}
   82532:	4620      	mov	r0, r4
   82534:	b002      	add	sp, #8
   82536:	e8bd 4010 	ldmia.w	sp!, {r4, lr}
   8253a:	f7ff bf4b 	b.w	823d4 <__sflush_r>
   8253e:	9101      	str	r1, [sp, #4]
   82540:	f000 f808 	bl	82554 <__sinit>
   82544:	9901      	ldr	r1, [sp, #4]
   82546:	e7ef      	b.n	82528 <_fflush_r+0xc>

00082548 <_cleanup_r>:
   82548:	4901      	ldr	r1, [pc, #4]	; (82550 <_cleanup_r+0x8>)
   8254a:	f000 b9b3 	b.w	828b4 <_fwalk>
   8254e:	bf00      	nop
   82550:	00083149 	.word	0x00083149

00082554 <__sinit>:
   82554:	e92d 4ff0 	stmdb	sp!, {r4, r5, r6, r7, r8, r9, sl, fp, lr}
   82558:	6b84      	ldr	r4, [r0, #56]	; 0x38
   8255a:	b083      	sub	sp, #12
   8255c:	4607      	mov	r7, r0
   8255e:	2c00      	cmp	r4, #0
   82560:	d165      	bne.n	8262e <__sinit+0xda>
   82562:	687d      	ldr	r5, [r7, #4]
   82564:	4833      	ldr	r0, [pc, #204]	; (82634 <__sinit+0xe0>)
   82566:	2304      	movs	r3, #4
   82568:	2103      	movs	r1, #3
   8256a:	f507 723b 	add.w	r2, r7, #748	; 0x2ec
   8256e:	63f8      	str	r0, [r7, #60]	; 0x3c
   82570:	f8c7 12e4 	str.w	r1, [r7, #740]	; 0x2e4
   82574:	f8c7 22e8 	str.w	r2, [r7, #744]	; 0x2e8
   82578:	f8c7 42e0 	str.w	r4, [r7, #736]	; 0x2e0
   8257c:	f105 005c 	add.w	r0, r5, #92	; 0x5c
   82580:	81ab      	strh	r3, [r5, #12]
   82582:	602c      	str	r4, [r5, #0]
   82584:	606c      	str	r4, [r5, #4]
   82586:	60ac      	str	r4, [r5, #8]
   82588:	666c      	str	r4, [r5, #100]	; 0x64
   8258a:	81ec      	strh	r4, [r5, #14]
   8258c:	612c      	str	r4, [r5, #16]
   8258e:	616c      	str	r4, [r5, #20]
   82590:	61ac      	str	r4, [r5, #24]
   82592:	4621      	mov	r1, r4
   82594:	2208      	movs	r2, #8
   82596:	f7ff fd77 	bl	82088 <memset>
   8259a:	f8df b09c 	ldr.w	fp, [pc, #156]	; 82638 <__sinit+0xe4>
   8259e:	68be      	ldr	r6, [r7, #8]
   825a0:	f8df a098 	ldr.w	sl, [pc, #152]	; 8263c <__sinit+0xe8>
   825a4:	f8df 9098 	ldr.w	r9, [pc, #152]	; 82640 <__sinit+0xec>
   825a8:	f8df 8098 	ldr.w	r8, [pc, #152]	; 82644 <__sinit+0xf0>
   825ac:	2301      	movs	r3, #1
   825ae:	2209      	movs	r2, #9
   825b0:	61ed      	str	r5, [r5, #28]
   825b2:	f8c5 b020 	str.w	fp, [r5, #32]
   825b6:	f8c5 a024 	str.w	sl, [r5, #36]	; 0x24
   825ba:	f8c5 9028 	str.w	r9, [r5, #40]	; 0x28
   825be:	f8c5 802c 	str.w	r8, [r5, #44]	; 0x2c
   825c2:	4621      	mov	r1, r4
   825c4:	81f3      	strh	r3, [r6, #14]
   825c6:	81b2      	strh	r2, [r6, #12]
   825c8:	6034      	str	r4, [r6, #0]
   825ca:	6074      	str	r4, [r6, #4]
   825cc:	60b4      	str	r4, [r6, #8]
   825ce:	6674      	str	r4, [r6, #100]	; 0x64
   825d0:	6134      	str	r4, [r6, #16]
   825d2:	6174      	str	r4, [r6, #20]
   825d4:	61b4      	str	r4, [r6, #24]
   825d6:	2208      	movs	r2, #8
   825d8:	f106 005c 	add.w	r0, r6, #92	; 0x5c
   825dc:	9301      	str	r3, [sp, #4]
   825de:	f7ff fd53 	bl	82088 <memset>
   825e2:	68fd      	ldr	r5, [r7, #12]
   825e4:	2012      	movs	r0, #18
   825e6:	2202      	movs	r2, #2
   825e8:	61f6      	str	r6, [r6, #28]
   825ea:	f8c6 b020 	str.w	fp, [r6, #32]
   825ee:	f8c6 a024 	str.w	sl, [r6, #36]	; 0x24
   825f2:	f8c6 9028 	str.w	r9, [r6, #40]	; 0x28
   825f6:	f8c6 802c 	str.w	r8, [r6, #44]	; 0x2c
   825fa:	4621      	mov	r1, r4
   825fc:	81a8      	strh	r0, [r5, #12]
   825fe:	81ea      	strh	r2, [r5, #14]
   82600:	602c      	str	r4, [r5, #0]
   82602:	606c      	str	r4, [r5, #4]
   82604:	60ac      	str	r4, [r5, #8]
   82606:	666c      	str	r4, [r5, #100]	; 0x64
   82608:	612c      	str	r4, [r5, #16]
   8260a:	616c      	str	r4, [r5, #20]
   8260c:	61ac      	str	r4, [r5, #24]
   8260e:	f105 005c 	add.w	r0, r5, #92	; 0x5c
   82612:	2208      	movs	r2, #8
   82614:	f7ff fd38 	bl	82088 <memset>
   82618:	9b01      	ldr	r3, [sp, #4]
   8261a:	61ed      	str	r5, [r5, #28]
   8261c:	f8c5 b020 	str.w	fp, [r5, #32]
   82620:	f8c5 a024 	str.w	sl, [r5, #36]	; 0x24
   82624:	f8c5 9028 	str.w	r9, [r5, #40]	; 0x28
   82628:	f8c5 802c 	str.w	r8, [r5, #44]	; 0x2c
   8262c:	63bb      	str	r3, [r7, #56]	; 0x38
   8262e:	b003      	add	sp, #12
   82630:	e8bd 8ff0 	ldmia.w	sp!, {r4, r5, r6, r7, r8, r9, sl, fp, pc}
   82634:	00082549 	.word	0x00082549
   82638:	00082f51 	.word	0x00082f51
   8263c:	00082f75 	.word	0x00082f75
   82640:	00082fad 	.word	0x00082fad
   82644:	00082fcd 	.word	0x00082fcd

00082648 <__sfp_lock_acquire>:
   82648:	4770      	bx	lr
   8264a:	bf00      	nop

0008264c <__sfp_lock_release>:
   8264c:	4770      	bx	lr
   8264e:	bf00      	nop

00082650 <__libc_fini_array>:
   82650:	b538      	push	{r3, r4, r5, lr}
   82652:	4d09      	ldr	r5, [pc, #36]	; (82678 <__libc_fini_array+0x28>)
   82654:	4c09      	ldr	r4, [pc, #36]	; (8267c <__libc_fini_array+0x2c>)
   82656:	1b64      	subs	r4, r4, r5
   82658:	10a4      	asrs	r4, r4, #2
   8265a:	bf18      	it	ne
   8265c:	eb05 0584 	addne.w	r5, r5, r4, lsl #2
   82660:	d005      	beq.n	8266e <__libc_fini_array+0x1e>
   82662:	3c01      	subs	r4, #1
   82664:	f855 3d04 	ldr.w	r3, [r5, #-4]!
   82668:	4798      	blx	r3
   8266a:	2c00      	cmp	r4, #0
   8266c:	d1f9      	bne.n	82662 <__libc_fini_array+0x12>
   8266e:	e8bd 4038 	ldmia.w	sp!, {r3, r4, r5, lr}
   82672:	f000 bf63 	b.w	8353c <_fini>
   82676:	bf00      	nop
   82678:	00083548 	.word	0x00083548
   8267c:	0008354c 	.word	0x0008354c

00082680 <_malloc_trim_r>:
   82680:	b5f8      	push	{r3, r4, r5, r6, r7, lr}
   82682:	4d23      	ldr	r5, [pc, #140]	; (82710 <_malloc_trim_r+0x90>)
   82684:	460f      	mov	r7, r1
   82686:	4604      	mov	r4, r0
   82688:	f000 fc4c 	bl	82f24 <__malloc_lock>
   8268c:	68ab      	ldr	r3, [r5, #8]
   8268e:	685e      	ldr	r6, [r3, #4]
   82690:	f026 0603 	bic.w	r6, r6, #3
   82694:	1bf1      	subs	r1, r6, r7
   82696:	f601 71ef 	addw	r1, r1, #4079	; 0xfef
   8269a:	f421 617f 	bic.w	r1, r1, #4080	; 0xff0
   8269e:	f021 010f 	bic.w	r1, r1, #15
   826a2:	f5a1 5780 	sub.w	r7, r1, #4096	; 0x1000
   826a6:	f5b7 5f80 	cmp.w	r7, #4096	; 0x1000
   826aa:	db07      	blt.n	826bc <_malloc_trim_r+0x3c>
   826ac:	4620      	mov	r0, r4
   826ae:	2100      	movs	r1, #0
   826b0:	f000 fc3c 	bl	82f2c <_sbrk_r>
   826b4:	68ab      	ldr	r3, [r5, #8]
   826b6:	4433      	add	r3, r6
   826b8:	4298      	cmp	r0, r3
   826ba:	d004      	beq.n	826c6 <_malloc_trim_r+0x46>
   826bc:	4620      	mov	r0, r4
   826be:	f000 fc33 	bl	82f28 <__malloc_unlock>
   826c2:	2000      	movs	r0, #0
   826c4:	bdf8      	pop	{r3, r4, r5, r6, r7, pc}
   826c6:	4620      	mov	r0, r4
   826c8:	4279      	negs	r1, r7
   826ca:	f000 fc2f 	bl	82f2c <_sbrk_r>
   826ce:	3001      	adds	r0, #1
   826d0:	d00d      	beq.n	826ee <_malloc_trim_r+0x6e>
   826d2:	4b10      	ldr	r3, [pc, #64]	; (82714 <_malloc_trim_r+0x94>)
   826d4:	68aa      	ldr	r2, [r5, #8]
   826d6:	6819      	ldr	r1, [r3, #0]
   826d8:	1bf6      	subs	r6, r6, r7
   826da:	f046 0601 	orr.w	r6, r6, #1
   826de:	4620      	mov	r0, r4
   826e0:	1bc9      	subs	r1, r1, r7
   826e2:	6056      	str	r6, [r2, #4]
   826e4:	6019      	str	r1, [r3, #0]
   826e6:	f000 fc1f 	bl	82f28 <__malloc_unlock>
   826ea:	2001      	movs	r0, #1
   826ec:	bdf8      	pop	{r3, r4, r5, r6, r7, pc}
   826ee:	4620      	mov	r0, r4
   826f0:	2100      	movs	r1, #0
   826f2:	f000 fc1b 	bl	82f2c <_sbrk_r>
   826f6:	68ab      	ldr	r3, [r5, #8]
   826f8:	1ac2      	subs	r2, r0, r3
   826fa:	2a0f      	cmp	r2, #15
   826fc:	ddde      	ble.n	826bc <_malloc_trim_r+0x3c>
   826fe:	4d06      	ldr	r5, [pc, #24]	; (82718 <_malloc_trim_r+0x98>)
   82700:	4904      	ldr	r1, [pc, #16]	; (82714 <_malloc_trim_r+0x94>)
   82702:	682d      	ldr	r5, [r5, #0]
   82704:	f042 0201 	orr.w	r2, r2, #1
   82708:	1b40      	subs	r0, r0, r5
   8270a:	605a      	str	r2, [r3, #4]
   8270c:	6008      	str	r0, [r1, #0]
   8270e:	e7d5      	b.n	826bc <_malloc_trim_r+0x3c>
   82710:	20070564 	.word	0x20070564
   82714:	20070ab0 	.word	0x20070ab0
   82718:	20070970 	.word	0x20070970

0008271c <_free_r>:
   8271c:	e92d 41f0 	stmdb	sp!, {r4, r5, r6, r7, r8, lr}
   82720:	460d      	mov	r5, r1
   82722:	4606      	mov	r6, r0
   82724:	2900      	cmp	r1, #0
   82726:	d055      	beq.n	827d4 <_free_r+0xb8>
   82728:	f000 fbfc 	bl	82f24 <__malloc_lock>
   8272c:	f855 1c04 	ldr.w	r1, [r5, #-4]
   82730:	f8df c170 	ldr.w	ip, [pc, #368]	; 828a4 <_free_r+0x188>
   82734:	f1a5 0408 	sub.w	r4, r5, #8
   82738:	f021 0301 	bic.w	r3, r1, #1
   8273c:	18e2      	adds	r2, r4, r3
   8273e:	f8dc 0008 	ldr.w	r0, [ip, #8]
   82742:	6857      	ldr	r7, [r2, #4]
   82744:	4290      	cmp	r0, r2
   82746:	f027 0703 	bic.w	r7, r7, #3
   8274a:	d068      	beq.n	8281e <_free_r+0x102>
   8274c:	f011 0101 	ands.w	r1, r1, #1
   82750:	6057      	str	r7, [r2, #4]
   82752:	d032      	beq.n	827ba <_free_r+0x9e>
   82754:	2100      	movs	r1, #0
   82756:	19d0      	adds	r0, r2, r7
   82758:	6840      	ldr	r0, [r0, #4]
   8275a:	07c0      	lsls	r0, r0, #31
   8275c:	d406      	bmi.n	8276c <_free_r+0x50>
   8275e:	443b      	add	r3, r7
   82760:	6890      	ldr	r0, [r2, #8]
   82762:	2900      	cmp	r1, #0
   82764:	d04d      	beq.n	82802 <_free_r+0xe6>
   82766:	68d2      	ldr	r2, [r2, #12]
   82768:	60c2      	str	r2, [r0, #12]
   8276a:	6090      	str	r0, [r2, #8]
   8276c:	f043 0201 	orr.w	r2, r3, #1
   82770:	6062      	str	r2, [r4, #4]
   82772:	50e3      	str	r3, [r4, r3]
   82774:	b9e1      	cbnz	r1, 827b0 <_free_r+0x94>
   82776:	f5b3 7f00 	cmp.w	r3, #512	; 0x200
   8277a:	d32d      	bcc.n	827d8 <_free_r+0xbc>
   8277c:	0a5a      	lsrs	r2, r3, #9
   8277e:	2a04      	cmp	r2, #4
   82780:	d869      	bhi.n	82856 <_free_r+0x13a>
   82782:	0998      	lsrs	r0, r3, #6
   82784:	3038      	adds	r0, #56	; 0x38
   82786:	0041      	lsls	r1, r0, #1
   82788:	eb0c 0c81 	add.w	ip, ip, r1, lsl #2
   8278c:	f8dc 2008 	ldr.w	r2, [ip, #8]
   82790:	4944      	ldr	r1, [pc, #272]	; (828a4 <_free_r+0x188>)
   82792:	4562      	cmp	r2, ip
   82794:	d065      	beq.n	82862 <_free_r+0x146>
   82796:	6851      	ldr	r1, [r2, #4]
   82798:	f021 0103 	bic.w	r1, r1, #3
   8279c:	428b      	cmp	r3, r1
   8279e:	d202      	bcs.n	827a6 <_free_r+0x8a>
   827a0:	6892      	ldr	r2, [r2, #8]
   827a2:	4594      	cmp	ip, r2
   827a4:	d1f7      	bne.n	82796 <_free_r+0x7a>
   827a6:	68d3      	ldr	r3, [r2, #12]
   827a8:	60e3      	str	r3, [r4, #12]
   827aa:	60a2      	str	r2, [r4, #8]
   827ac:	609c      	str	r4, [r3, #8]
   827ae:	60d4      	str	r4, [r2, #12]
   827b0:	4630      	mov	r0, r6
   827b2:	e8bd 41f0 	ldmia.w	sp!, {r4, r5, r6, r7, r8, lr}
   827b6:	f000 bbb7 	b.w	82f28 <__malloc_unlock>
   827ba:	f855 5c08 	ldr.w	r5, [r5, #-8]
   827be:	f10c 0808 	add.w	r8, ip, #8
   827c2:	1b64      	subs	r4, r4, r5
   827c4:	68a0      	ldr	r0, [r4, #8]
   827c6:	442b      	add	r3, r5
   827c8:	4540      	cmp	r0, r8
   827ca:	d042      	beq.n	82852 <_free_r+0x136>
   827cc:	68e5      	ldr	r5, [r4, #12]
   827ce:	60c5      	str	r5, [r0, #12]
   827d0:	60a8      	str	r0, [r5, #8]
   827d2:	e7c0      	b.n	82756 <_free_r+0x3a>
   827d4:	e8bd 81f0 	ldmia.w	sp!, {r4, r5, r6, r7, r8, pc}
   827d8:	08db      	lsrs	r3, r3, #3
   827da:	109a      	asrs	r2, r3, #2
   827dc:	2001      	movs	r0, #1
   827de:	4090      	lsls	r0, r2
   827e0:	f8dc 1004 	ldr.w	r1, [ip, #4]
   827e4:	eb0c 03c3 	add.w	r3, ip, r3, lsl #3
   827e8:	689a      	ldr	r2, [r3, #8]
   827ea:	4301      	orrs	r1, r0
   827ec:	60a2      	str	r2, [r4, #8]
   827ee:	60e3      	str	r3, [r4, #12]
   827f0:	f8cc 1004 	str.w	r1, [ip, #4]
   827f4:	4630      	mov	r0, r6
   827f6:	609c      	str	r4, [r3, #8]
   827f8:	60d4      	str	r4, [r2, #12]
   827fa:	e8bd 41f0 	ldmia.w	sp!, {r4, r5, r6, r7, r8, lr}
   827fe:	f000 bb93 	b.w	82f28 <__malloc_unlock>
   82802:	4d29      	ldr	r5, [pc, #164]	; (828a8 <_free_r+0x18c>)
   82804:	42a8      	cmp	r0, r5
   82806:	d1ae      	bne.n	82766 <_free_r+0x4a>
   82808:	f043 0201 	orr.w	r2, r3, #1
   8280c:	f8cc 4014 	str.w	r4, [ip, #20]
   82810:	f8cc 4010 	str.w	r4, [ip, #16]
   82814:	60e0      	str	r0, [r4, #12]
   82816:	60a0      	str	r0, [r4, #8]
   82818:	6062      	str	r2, [r4, #4]
   8281a:	50e3      	str	r3, [r4, r3]
   8281c:	e7c8      	b.n	827b0 <_free_r+0x94>
   8281e:	441f      	add	r7, r3
   82820:	07cb      	lsls	r3, r1, #31
   82822:	d407      	bmi.n	82834 <_free_r+0x118>
   82824:	f855 1c08 	ldr.w	r1, [r5, #-8]
   82828:	1a64      	subs	r4, r4, r1
   8282a:	68e3      	ldr	r3, [r4, #12]
   8282c:	68a2      	ldr	r2, [r4, #8]
   8282e:	440f      	add	r7, r1
   82830:	60d3      	str	r3, [r2, #12]
   82832:	609a      	str	r2, [r3, #8]
   82834:	4b1d      	ldr	r3, [pc, #116]	; (828ac <_free_r+0x190>)
   82836:	f047 0201 	orr.w	r2, r7, #1
   8283a:	681b      	ldr	r3, [r3, #0]
   8283c:	6062      	str	r2, [r4, #4]
   8283e:	429f      	cmp	r7, r3
   82840:	f8cc 4008 	str.w	r4, [ip, #8]
   82844:	d3b4      	bcc.n	827b0 <_free_r+0x94>
   82846:	4b1a      	ldr	r3, [pc, #104]	; (828b0 <_free_r+0x194>)
   82848:	4630      	mov	r0, r6
   8284a:	6819      	ldr	r1, [r3, #0]
   8284c:	f7ff ff18 	bl	82680 <_malloc_trim_r>
   82850:	e7ae      	b.n	827b0 <_free_r+0x94>
   82852:	2101      	movs	r1, #1
   82854:	e77f      	b.n	82756 <_free_r+0x3a>
   82856:	2a14      	cmp	r2, #20
   82858:	d80b      	bhi.n	82872 <_free_r+0x156>
   8285a:	f102 005b 	add.w	r0, r2, #91	; 0x5b
   8285e:	0041      	lsls	r1, r0, #1
   82860:	e792      	b.n	82788 <_free_r+0x6c>
   82862:	1080      	asrs	r0, r0, #2
   82864:	2501      	movs	r5, #1
   82866:	4085      	lsls	r5, r0
   82868:	6848      	ldr	r0, [r1, #4]
   8286a:	4613      	mov	r3, r2
   8286c:	4328      	orrs	r0, r5
   8286e:	6048      	str	r0, [r1, #4]
   82870:	e79a      	b.n	827a8 <_free_r+0x8c>
   82872:	2a54      	cmp	r2, #84	; 0x54
   82874:	d803      	bhi.n	8287e <_free_r+0x162>
   82876:	0b18      	lsrs	r0, r3, #12
   82878:	306e      	adds	r0, #110	; 0x6e
   8287a:	0041      	lsls	r1, r0, #1
   8287c:	e784      	b.n	82788 <_free_r+0x6c>
   8287e:	f5b2 7faa 	cmp.w	r2, #340	; 0x154
   82882:	d803      	bhi.n	8288c <_free_r+0x170>
   82884:	0bd8      	lsrs	r0, r3, #15
   82886:	3077      	adds	r0, #119	; 0x77
   82888:	0041      	lsls	r1, r0, #1
   8288a:	e77d      	b.n	82788 <_free_r+0x6c>
   8288c:	f240 5154 	movw	r1, #1364	; 0x554
   82890:	428a      	cmp	r2, r1
   82892:	d803      	bhi.n	8289c <_free_r+0x180>
   82894:	0c98      	lsrs	r0, r3, #18
   82896:	307c      	adds	r0, #124	; 0x7c
   82898:	0041      	lsls	r1, r0, #1
   8289a:	e775      	b.n	82788 <_free_r+0x6c>
   8289c:	21fc      	movs	r1, #252	; 0xfc
   8289e:	207e      	movs	r0, #126	; 0x7e
   828a0:	e772      	b.n	82788 <_free_r+0x6c>
   828a2:	bf00      	nop
   828a4:	20070564 	.word	0x20070564
   828a8:	2007056c 	.word	0x2007056c
   828ac:	2007096c 	.word	0x2007096c
   828b0:	20070aac 	.word	0x20070aac

000828b4 <_fwalk>:
   828b4:	e92d 41f0 	stmdb	sp!, {r4, r5, r6, r7, r8, lr}
   828b8:	f510 7738 	adds.w	r7, r0, #736	; 0x2e0
   828bc:	4688      	mov	r8, r1
   828be:	d019      	beq.n	828f4 <_fwalk+0x40>
   828c0:	2600      	movs	r6, #0
   828c2:	687d      	ldr	r5, [r7, #4]
   828c4:	68bc      	ldr	r4, [r7, #8]
   828c6:	3d01      	subs	r5, #1
   828c8:	d40e      	bmi.n	828e8 <_fwalk+0x34>
   828ca:	89a3      	ldrh	r3, [r4, #12]
   828cc:	3d01      	subs	r5, #1
   828ce:	2b01      	cmp	r3, #1
   828d0:	d906      	bls.n	828e0 <_fwalk+0x2c>
   828d2:	f9b4 300e 	ldrsh.w	r3, [r4, #14]
   828d6:	4620      	mov	r0, r4
   828d8:	3301      	adds	r3, #1
   828da:	d001      	beq.n	828e0 <_fwalk+0x2c>
   828dc:	47c0      	blx	r8
   828de:	4306      	orrs	r6, r0
   828e0:	1c6b      	adds	r3, r5, #1
   828e2:	f104 0468 	add.w	r4, r4, #104	; 0x68
   828e6:	d1f0      	bne.n	828ca <_fwalk+0x16>
   828e8:	683f      	ldr	r7, [r7, #0]
   828ea:	2f00      	cmp	r7, #0
   828ec:	d1e9      	bne.n	828c2 <_fwalk+0xe>
   828ee:	4630      	mov	r0, r6
   828f0:	e8bd 81f0 	ldmia.w	sp!, {r4, r5, r6, r7, r8, pc}
   828f4:	463e      	mov	r6, r7
   828f6:	4630      	mov	r0, r6
   828f8:	e8bd 81f0 	ldmia.w	sp!, {r4, r5, r6, r7, r8, pc}

000828fc <__smakebuf_r>:
   828fc:	b5f0      	push	{r4, r5, r6, r7, lr}
   828fe:	898b      	ldrh	r3, [r1, #12]
   82900:	b091      	sub	sp, #68	; 0x44
   82902:	b29a      	uxth	r2, r3
   82904:	0796      	lsls	r6, r2, #30
   82906:	460c      	mov	r4, r1
   82908:	4605      	mov	r5, r0
   8290a:	d437      	bmi.n	8297c <__smakebuf_r+0x80>
   8290c:	f9b1 100e 	ldrsh.w	r1, [r1, #14]
   82910:	2900      	cmp	r1, #0
   82912:	db17      	blt.n	82944 <__smakebuf_r+0x48>
   82914:	aa01      	add	r2, sp, #4
   82916:	f000 fc1f 	bl	83158 <_fstat_r>
   8291a:	2800      	cmp	r0, #0
   8291c:	db10      	blt.n	82940 <__smakebuf_r+0x44>
   8291e:	9b02      	ldr	r3, [sp, #8]
   82920:	f403 4370 	and.w	r3, r3, #61440	; 0xf000
   82924:	f5b3 5100 	subs.w	r1, r3, #8192	; 0x2000
   82928:	424f      	negs	r7, r1
   8292a:	414f      	adcs	r7, r1
   8292c:	f5b3 4f00 	cmp.w	r3, #32768	; 0x8000
   82930:	d02c      	beq.n	8298c <__smakebuf_r+0x90>
   82932:	89a3      	ldrh	r3, [r4, #12]
   82934:	f44f 6680 	mov.w	r6, #1024	; 0x400
   82938:	f443 6300 	orr.w	r3, r3, #2048	; 0x800
   8293c:	81a3      	strh	r3, [r4, #12]
   8293e:	e00b      	b.n	82958 <__smakebuf_r+0x5c>
   82940:	89a3      	ldrh	r3, [r4, #12]
   82942:	b29a      	uxth	r2, r3
   82944:	f012 0f80 	tst.w	r2, #128	; 0x80
   82948:	f443 6300 	orr.w	r3, r3, #2048	; 0x800
   8294c:	81a3      	strh	r3, [r4, #12]
   8294e:	bf14      	ite	ne
   82950:	2640      	movne	r6, #64	; 0x40
   82952:	f44f 6680 	moveq.w	r6, #1024	; 0x400
   82956:	2700      	movs	r7, #0
   82958:	4628      	mov	r0, r5
   8295a:	4631      	mov	r1, r6
   8295c:	f000 f846 	bl	829ec <_malloc_r>
   82960:	89a3      	ldrh	r3, [r4, #12]
   82962:	2800      	cmp	r0, #0
   82964:	d029      	beq.n	829ba <__smakebuf_r+0xbe>
   82966:	4a1b      	ldr	r2, [pc, #108]	; (829d4 <__smakebuf_r+0xd8>)
   82968:	f043 0380 	orr.w	r3, r3, #128	; 0x80
   8296c:	63ea      	str	r2, [r5, #60]	; 0x3c
   8296e:	81a3      	strh	r3, [r4, #12]
   82970:	6020      	str	r0, [r4, #0]
   82972:	6120      	str	r0, [r4, #16]
   82974:	6166      	str	r6, [r4, #20]
   82976:	b9a7      	cbnz	r7, 829a2 <__smakebuf_r+0xa6>
   82978:	b011      	add	sp, #68	; 0x44
   8297a:	bdf0      	pop	{r4, r5, r6, r7, pc}
   8297c:	f101 0343 	add.w	r3, r1, #67	; 0x43
   82980:	2201      	movs	r2, #1
   82982:	600b      	str	r3, [r1, #0]
   82984:	610b      	str	r3, [r1, #16]
   82986:	614a      	str	r2, [r1, #20]
   82988:	b011      	add	sp, #68	; 0x44
   8298a:	bdf0      	pop	{r4, r5, r6, r7, pc}
   8298c:	4a12      	ldr	r2, [pc, #72]	; (829d8 <__smakebuf_r+0xdc>)
   8298e:	6aa3      	ldr	r3, [r4, #40]	; 0x28
   82990:	4293      	cmp	r3, r2
   82992:	d1ce      	bne.n	82932 <__smakebuf_r+0x36>
   82994:	89a3      	ldrh	r3, [r4, #12]
   82996:	f44f 6680 	mov.w	r6, #1024	; 0x400
   8299a:	4333      	orrs	r3, r6
   8299c:	81a3      	strh	r3, [r4, #12]
   8299e:	64e6      	str	r6, [r4, #76]	; 0x4c
   829a0:	e7da      	b.n	82958 <__smakebuf_r+0x5c>
   829a2:	4628      	mov	r0, r5
   829a4:	f9b4 100e 	ldrsh.w	r1, [r4, #14]
   829a8:	f000 fbea 	bl	83180 <_isatty_r>
   829ac:	2800      	cmp	r0, #0
   829ae:	d0e3      	beq.n	82978 <__smakebuf_r+0x7c>
   829b0:	89a3      	ldrh	r3, [r4, #12]
   829b2:	f043 0301 	orr.w	r3, r3, #1
   829b6:	81a3      	strh	r3, [r4, #12]
   829b8:	e7de      	b.n	82978 <__smakebuf_r+0x7c>
   829ba:	059a      	lsls	r2, r3, #22
   829bc:	d4dc      	bmi.n	82978 <__smakebuf_r+0x7c>
   829be:	f104 0243 	add.w	r2, r4, #67	; 0x43
   829c2:	f043 0302 	orr.w	r3, r3, #2
   829c6:	2101      	movs	r1, #1
   829c8:	81a3      	strh	r3, [r4, #12]
   829ca:	6022      	str	r2, [r4, #0]
   829cc:	6122      	str	r2, [r4, #16]
   829ce:	6161      	str	r1, [r4, #20]
   829d0:	e7d2      	b.n	82978 <__smakebuf_r+0x7c>
   829d2:	bf00      	nop
   829d4:	00082549 	.word	0x00082549
   829d8:	00082fad 	.word	0x00082fad

000829dc <malloc>:
   829dc:	4b02      	ldr	r3, [pc, #8]	; (829e8 <malloc+0xc>)
   829de:	4601      	mov	r1, r0
   829e0:	6818      	ldr	r0, [r3, #0]
   829e2:	f000 b803 	b.w	829ec <_malloc_r>
   829e6:	bf00      	nop
   829e8:	20070560 	.word	0x20070560

000829ec <_malloc_r>:
   829ec:	e92d 4ff0 	stmdb	sp!, {r4, r5, r6, r7, r8, r9, sl, fp, lr}
   829f0:	f101 050b 	add.w	r5, r1, #11
   829f4:	2d16      	cmp	r5, #22
   829f6:	b083      	sub	sp, #12
   829f8:	4606      	mov	r6, r0
   829fa:	d927      	bls.n	82a4c <_malloc_r+0x60>
   829fc:	f035 0507 	bics.w	r5, r5, #7
   82a00:	d427      	bmi.n	82a52 <_malloc_r+0x66>
   82a02:	42a9      	cmp	r1, r5
   82a04:	d825      	bhi.n	82a52 <_malloc_r+0x66>
   82a06:	4630      	mov	r0, r6
   82a08:	f000 fa8c 	bl	82f24 <__malloc_lock>
   82a0c:	f5b5 7ffc 	cmp.w	r5, #504	; 0x1f8
   82a10:	d226      	bcs.n	82a60 <_malloc_r+0x74>
   82a12:	4fc1      	ldr	r7, [pc, #772]	; (82d18 <_malloc_r+0x32c>)
   82a14:	ea4f 0cd5 	mov.w	ip, r5, lsr #3
   82a18:	eb07 03cc 	add.w	r3, r7, ip, lsl #3
   82a1c:	68dc      	ldr	r4, [r3, #12]
   82a1e:	429c      	cmp	r4, r3
   82a20:	f000 81d2 	beq.w	82dc8 <_malloc_r+0x3dc>
   82a24:	6863      	ldr	r3, [r4, #4]
   82a26:	68e2      	ldr	r2, [r4, #12]
   82a28:	f023 0303 	bic.w	r3, r3, #3
   82a2c:	4423      	add	r3, r4
   82a2e:	6858      	ldr	r0, [r3, #4]
   82a30:	68a1      	ldr	r1, [r4, #8]
   82a32:	f040 0501 	orr.w	r5, r0, #1
   82a36:	60ca      	str	r2, [r1, #12]
   82a38:	4630      	mov	r0, r6
   82a3a:	6091      	str	r1, [r2, #8]
   82a3c:	605d      	str	r5, [r3, #4]
   82a3e:	f000 fa73 	bl	82f28 <__malloc_unlock>
   82a42:	3408      	adds	r4, #8
   82a44:	4620      	mov	r0, r4
   82a46:	b003      	add	sp, #12
   82a48:	e8bd 8ff0 	ldmia.w	sp!, {r4, r5, r6, r7, r8, r9, sl, fp, pc}
   82a4c:	2510      	movs	r5, #16
   82a4e:	42a9      	cmp	r1, r5
   82a50:	d9d9      	bls.n	82a06 <_malloc_r+0x1a>
   82a52:	2400      	movs	r4, #0
   82a54:	230c      	movs	r3, #12
   82a56:	4620      	mov	r0, r4
   82a58:	6033      	str	r3, [r6, #0]
   82a5a:	b003      	add	sp, #12
   82a5c:	e8bd 8ff0 	ldmia.w	sp!, {r4, r5, r6, r7, r8, r9, sl, fp, pc}
   82a60:	ea5f 2c55 	movs.w	ip, r5, lsr #9
   82a64:	f000 8089 	beq.w	82b7a <_malloc_r+0x18e>
   82a68:	f1bc 0f04 	cmp.w	ip, #4
   82a6c:	f200 8160 	bhi.w	82d30 <_malloc_r+0x344>
   82a70:	ea4f 1c95 	mov.w	ip, r5, lsr #6
   82a74:	f10c 0c38 	add.w	ip, ip, #56	; 0x38
   82a78:	ea4f 014c 	mov.w	r1, ip, lsl #1
   82a7c:	4fa6      	ldr	r7, [pc, #664]	; (82d18 <_malloc_r+0x32c>)
   82a7e:	eb07 0181 	add.w	r1, r7, r1, lsl #2
   82a82:	68cc      	ldr	r4, [r1, #12]
   82a84:	42a1      	cmp	r1, r4
   82a86:	d105      	bne.n	82a94 <_malloc_r+0xa8>
   82a88:	e00c      	b.n	82aa4 <_malloc_r+0xb8>
   82a8a:	2b00      	cmp	r3, #0
   82a8c:	da79      	bge.n	82b82 <_malloc_r+0x196>
   82a8e:	68e4      	ldr	r4, [r4, #12]
   82a90:	42a1      	cmp	r1, r4
   82a92:	d007      	beq.n	82aa4 <_malloc_r+0xb8>
   82a94:	6862      	ldr	r2, [r4, #4]
   82a96:	f022 0203 	bic.w	r2, r2, #3
   82a9a:	1b53      	subs	r3, r2, r5
   82a9c:	2b0f      	cmp	r3, #15
   82a9e:	ddf4      	ble.n	82a8a <_malloc_r+0x9e>
   82aa0:	f10c 3cff 	add.w	ip, ip, #4294967295
   82aa4:	f10c 0c01 	add.w	ip, ip, #1
   82aa8:	4b9b      	ldr	r3, [pc, #620]	; (82d18 <_malloc_r+0x32c>)
   82aaa:	693c      	ldr	r4, [r7, #16]
   82aac:	f103 0e08 	add.w	lr, r3, #8
   82ab0:	4574      	cmp	r4, lr
   82ab2:	f000 817e 	beq.w	82db2 <_malloc_r+0x3c6>
   82ab6:	6861      	ldr	r1, [r4, #4]
   82ab8:	f021 0103 	bic.w	r1, r1, #3
   82abc:	1b4a      	subs	r2, r1, r5
   82abe:	2a0f      	cmp	r2, #15
   82ac0:	f300 8164 	bgt.w	82d8c <_malloc_r+0x3a0>
   82ac4:	2a00      	cmp	r2, #0
   82ac6:	f8c3 e014 	str.w	lr, [r3, #20]
   82aca:	f8c3 e010 	str.w	lr, [r3, #16]
   82ace:	da69      	bge.n	82ba4 <_malloc_r+0x1b8>
   82ad0:	f5b1 7f00 	cmp.w	r1, #512	; 0x200
   82ad4:	f080 813a 	bcs.w	82d4c <_malloc_r+0x360>
   82ad8:	08c9      	lsrs	r1, r1, #3
   82ada:	108a      	asrs	r2, r1, #2
   82adc:	f04f 0801 	mov.w	r8, #1
   82ae0:	fa08 f802 	lsl.w	r8, r8, r2
   82ae4:	eb03 01c1 	add.w	r1, r3, r1, lsl #3
   82ae8:	685a      	ldr	r2, [r3, #4]
   82aea:	6888      	ldr	r0, [r1, #8]
   82aec:	ea48 0202 	orr.w	r2, r8, r2
   82af0:	60a0      	str	r0, [r4, #8]
   82af2:	60e1      	str	r1, [r4, #12]
   82af4:	605a      	str	r2, [r3, #4]
   82af6:	608c      	str	r4, [r1, #8]
   82af8:	60c4      	str	r4, [r0, #12]
   82afa:	ea4f 03ac 	mov.w	r3, ip, asr #2
   82afe:	2001      	movs	r0, #1
   82b00:	4098      	lsls	r0, r3
   82b02:	4290      	cmp	r0, r2
   82b04:	d85b      	bhi.n	82bbe <_malloc_r+0x1d2>
   82b06:	4202      	tst	r2, r0
   82b08:	d106      	bne.n	82b18 <_malloc_r+0x12c>
   82b0a:	f02c 0c03 	bic.w	ip, ip, #3
   82b0e:	0040      	lsls	r0, r0, #1
   82b10:	4202      	tst	r2, r0
   82b12:	f10c 0c04 	add.w	ip, ip, #4
   82b16:	d0fa      	beq.n	82b0e <_malloc_r+0x122>
   82b18:	eb07 08cc 	add.w	r8, r7, ip, lsl #3
   82b1c:	4644      	mov	r4, r8
   82b1e:	46e1      	mov	r9, ip
   82b20:	68e3      	ldr	r3, [r4, #12]
   82b22:	429c      	cmp	r4, r3
   82b24:	d107      	bne.n	82b36 <_malloc_r+0x14a>
   82b26:	e146      	b.n	82db6 <_malloc_r+0x3ca>
   82b28:	2a00      	cmp	r2, #0
   82b2a:	f280 8157 	bge.w	82ddc <_malloc_r+0x3f0>
   82b2e:	68db      	ldr	r3, [r3, #12]
   82b30:	429c      	cmp	r4, r3
   82b32:	f000 8140 	beq.w	82db6 <_malloc_r+0x3ca>
   82b36:	6859      	ldr	r1, [r3, #4]
   82b38:	f021 0103 	bic.w	r1, r1, #3
   82b3c:	1b4a      	subs	r2, r1, r5
   82b3e:	2a0f      	cmp	r2, #15
   82b40:	ddf2      	ble.n	82b28 <_malloc_r+0x13c>
   82b42:	461c      	mov	r4, r3
   82b44:	f854 cf08 	ldr.w	ip, [r4, #8]!
   82b48:	68d9      	ldr	r1, [r3, #12]
   82b4a:	f045 0901 	orr.w	r9, r5, #1
   82b4e:	f042 0801 	orr.w	r8, r2, #1
   82b52:	441d      	add	r5, r3
   82b54:	f8c3 9004 	str.w	r9, [r3, #4]
   82b58:	4630      	mov	r0, r6
   82b5a:	f8cc 100c 	str.w	r1, [ip, #12]
   82b5e:	f8c1 c008 	str.w	ip, [r1, #8]
   82b62:	617d      	str	r5, [r7, #20]
   82b64:	613d      	str	r5, [r7, #16]
   82b66:	f8c5 e00c 	str.w	lr, [r5, #12]
   82b6a:	f8c5 e008 	str.w	lr, [r5, #8]
   82b6e:	f8c5 8004 	str.w	r8, [r5, #4]
   82b72:	50aa      	str	r2, [r5, r2]
   82b74:	f000 f9d8 	bl	82f28 <__malloc_unlock>
   82b78:	e764      	b.n	82a44 <_malloc_r+0x58>
   82b7a:	217e      	movs	r1, #126	; 0x7e
   82b7c:	f04f 0c3f 	mov.w	ip, #63	; 0x3f
   82b80:	e77c      	b.n	82a7c <_malloc_r+0x90>
   82b82:	4422      	add	r2, r4
   82b84:	6850      	ldr	r0, [r2, #4]
   82b86:	68e3      	ldr	r3, [r4, #12]
   82b88:	68a1      	ldr	r1, [r4, #8]
   82b8a:	f040 0501 	orr.w	r5, r0, #1
   82b8e:	60cb      	str	r3, [r1, #12]
   82b90:	4630      	mov	r0, r6
   82b92:	6099      	str	r1, [r3, #8]
   82b94:	6055      	str	r5, [r2, #4]
   82b96:	f000 f9c7 	bl	82f28 <__malloc_unlock>
   82b9a:	3408      	adds	r4, #8
   82b9c:	4620      	mov	r0, r4
   82b9e:	b003      	add	sp, #12
   82ba0:	e8bd 8ff0 	ldmia.w	sp!, {r4, r5, r6, r7, r8, r9, sl, fp, pc}
   82ba4:	4421      	add	r1, r4
   82ba6:	684b      	ldr	r3, [r1, #4]
   82ba8:	4630      	mov	r0, r6
   82baa:	f043 0301 	orr.w	r3, r3, #1
   82bae:	604b      	str	r3, [r1, #4]
   82bb0:	f000 f9ba 	bl	82f28 <__malloc_unlock>
   82bb4:	3408      	adds	r4, #8
   82bb6:	4620      	mov	r0, r4
   82bb8:	b003      	add	sp, #12
   82bba:	e8bd 8ff0 	ldmia.w	sp!, {r4, r5, r6, r7, r8, r9, sl, fp, pc}
   82bbe:	68bc      	ldr	r4, [r7, #8]
   82bc0:	6863      	ldr	r3, [r4, #4]
   82bc2:	f023 0903 	bic.w	r9, r3, #3
   82bc6:	45a9      	cmp	r9, r5
   82bc8:	d304      	bcc.n	82bd4 <_malloc_r+0x1e8>
   82bca:	ebc5 0309 	rsb	r3, r5, r9
   82bce:	2b0f      	cmp	r3, #15
   82bd0:	f300 8091 	bgt.w	82cf6 <_malloc_r+0x30a>
   82bd4:	4b51      	ldr	r3, [pc, #324]	; (82d1c <_malloc_r+0x330>)
   82bd6:	4a52      	ldr	r2, [pc, #328]	; (82d20 <_malloc_r+0x334>)
   82bd8:	6819      	ldr	r1, [r3, #0]
   82bda:	6813      	ldr	r3, [r2, #0]
   82bdc:	eb05 0a01 	add.w	sl, r5, r1
   82be0:	3301      	adds	r3, #1
   82be2:	eb04 0b09 	add.w	fp, r4, r9
   82be6:	f000 8161 	beq.w	82eac <_malloc_r+0x4c0>
   82bea:	f50a 5a80 	add.w	sl, sl, #4096	; 0x1000
   82bee:	f10a 0a0f 	add.w	sl, sl, #15
   82bf2:	f42a 6a7f 	bic.w	sl, sl, #4080	; 0xff0
   82bf6:	f02a 0a0f 	bic.w	sl, sl, #15
   82bfa:	4630      	mov	r0, r6
   82bfc:	4651      	mov	r1, sl
   82bfe:	9201      	str	r2, [sp, #4]
   82c00:	f000 f994 	bl	82f2c <_sbrk_r>
   82c04:	f1b0 3fff 	cmp.w	r0, #4294967295
   82c08:	4680      	mov	r8, r0
   82c0a:	9a01      	ldr	r2, [sp, #4]
   82c0c:	f000 8101 	beq.w	82e12 <_malloc_r+0x426>
   82c10:	4583      	cmp	fp, r0
   82c12:	f200 80fb 	bhi.w	82e0c <_malloc_r+0x420>
   82c16:	f8df c114 	ldr.w	ip, [pc, #276]	; 82d2c <_malloc_r+0x340>
   82c1a:	45c3      	cmp	fp, r8
   82c1c:	f8dc 3000 	ldr.w	r3, [ip]
   82c20:	4453      	add	r3, sl
   82c22:	f8cc 3000 	str.w	r3, [ip]
   82c26:	f000 814a 	beq.w	82ebe <_malloc_r+0x4d2>
   82c2a:	6812      	ldr	r2, [r2, #0]
   82c2c:	493c      	ldr	r1, [pc, #240]	; (82d20 <_malloc_r+0x334>)
   82c2e:	3201      	adds	r2, #1
   82c30:	bf1b      	ittet	ne
   82c32:	ebcb 0b08 	rsbne	fp, fp, r8
   82c36:	445b      	addne	r3, fp
   82c38:	f8c1 8000 	streq.w	r8, [r1]
   82c3c:	f8cc 3000 	strne.w	r3, [ip]
   82c40:	f018 0307 	ands.w	r3, r8, #7
   82c44:	f000 8114 	beq.w	82e70 <_malloc_r+0x484>
   82c48:	f1c3 0208 	rsb	r2, r3, #8
   82c4c:	f5c3 5380 	rsb	r3, r3, #4096	; 0x1000
   82c50:	4490      	add	r8, r2
   82c52:	3308      	adds	r3, #8
   82c54:	44c2      	add	sl, r8
   82c56:	f3ca 0a0b 	ubfx	sl, sl, #0, #12
   82c5a:	ebca 0a03 	rsb	sl, sl, r3
   82c5e:	4651      	mov	r1, sl
   82c60:	4630      	mov	r0, r6
   82c62:	f8cd c004 	str.w	ip, [sp, #4]
   82c66:	f000 f961 	bl	82f2c <_sbrk_r>
   82c6a:	1c43      	adds	r3, r0, #1
   82c6c:	f8dd c004 	ldr.w	ip, [sp, #4]
   82c70:	f000 8135 	beq.w	82ede <_malloc_r+0x4f2>
   82c74:	ebc8 0200 	rsb	r2, r8, r0
   82c78:	4452      	add	r2, sl
   82c7a:	f042 0201 	orr.w	r2, r2, #1
   82c7e:	f8dc 3000 	ldr.w	r3, [ip]
   82c82:	42bc      	cmp	r4, r7
   82c84:	4453      	add	r3, sl
   82c86:	f8c7 8008 	str.w	r8, [r7, #8]
   82c8a:	f8cc 3000 	str.w	r3, [ip]
   82c8e:	f8c8 2004 	str.w	r2, [r8, #4]
   82c92:	f8df a098 	ldr.w	sl, [pc, #152]	; 82d2c <_malloc_r+0x340>
   82c96:	d015      	beq.n	82cc4 <_malloc_r+0x2d8>
   82c98:	f1b9 0f0f 	cmp.w	r9, #15
   82c9c:	f240 80eb 	bls.w	82e76 <_malloc_r+0x48a>
   82ca0:	6861      	ldr	r1, [r4, #4]
   82ca2:	f1a9 020c 	sub.w	r2, r9, #12
   82ca6:	f022 0207 	bic.w	r2, r2, #7
   82caa:	f001 0101 	and.w	r1, r1, #1
   82cae:	ea42 0e01 	orr.w	lr, r2, r1
   82cb2:	2005      	movs	r0, #5
   82cb4:	18a1      	adds	r1, r4, r2
   82cb6:	2a0f      	cmp	r2, #15
   82cb8:	f8c4 e004 	str.w	lr, [r4, #4]
   82cbc:	6048      	str	r0, [r1, #4]
   82cbe:	6088      	str	r0, [r1, #8]
   82cc0:	f200 8111 	bhi.w	82ee6 <_malloc_r+0x4fa>
   82cc4:	4a17      	ldr	r2, [pc, #92]	; (82d24 <_malloc_r+0x338>)
   82cc6:	68bc      	ldr	r4, [r7, #8]
   82cc8:	6811      	ldr	r1, [r2, #0]
   82cca:	428b      	cmp	r3, r1
   82ccc:	bf88      	it	hi
   82cce:	6013      	strhi	r3, [r2, #0]
   82cd0:	4a15      	ldr	r2, [pc, #84]	; (82d28 <_malloc_r+0x33c>)
   82cd2:	6811      	ldr	r1, [r2, #0]
   82cd4:	428b      	cmp	r3, r1
   82cd6:	bf88      	it	hi
   82cd8:	6013      	strhi	r3, [r2, #0]
   82cda:	6862      	ldr	r2, [r4, #4]
   82cdc:	f022 0203 	bic.w	r2, r2, #3
   82ce0:	4295      	cmp	r5, r2
   82ce2:	ebc5 0302 	rsb	r3, r5, r2
   82ce6:	d801      	bhi.n	82cec <_malloc_r+0x300>
   82ce8:	2b0f      	cmp	r3, #15
   82cea:	dc04      	bgt.n	82cf6 <_malloc_r+0x30a>
   82cec:	4630      	mov	r0, r6
   82cee:	f000 f91b 	bl	82f28 <__malloc_unlock>
   82cf2:	2400      	movs	r4, #0
   82cf4:	e6a6      	b.n	82a44 <_malloc_r+0x58>
   82cf6:	f045 0201 	orr.w	r2, r5, #1
   82cfa:	f043 0301 	orr.w	r3, r3, #1
   82cfe:	4425      	add	r5, r4
   82d00:	6062      	str	r2, [r4, #4]
   82d02:	4630      	mov	r0, r6
   82d04:	60bd      	str	r5, [r7, #8]
   82d06:	606b      	str	r3, [r5, #4]
   82d08:	f000 f90e 	bl	82f28 <__malloc_unlock>
   82d0c:	3408      	adds	r4, #8
   82d0e:	4620      	mov	r0, r4
   82d10:	b003      	add	sp, #12
   82d12:	e8bd 8ff0 	ldmia.w	sp!, {r4, r5, r6, r7, r8, r9, sl, fp, pc}
   82d16:	bf00      	nop
   82d18:	20070564 	.word	0x20070564
   82d1c:	20070aac 	.word	0x20070aac
   82d20:	20070970 	.word	0x20070970
   82d24:	20070aa8 	.word	0x20070aa8
   82d28:	20070aa4 	.word	0x20070aa4
   82d2c:	20070ab0 	.word	0x20070ab0
   82d30:	f1bc 0f14 	cmp.w	ip, #20
   82d34:	d961      	bls.n	82dfa <_malloc_r+0x40e>
   82d36:	f1bc 0f54 	cmp.w	ip, #84	; 0x54
   82d3a:	f200 808f 	bhi.w	82e5c <_malloc_r+0x470>
   82d3e:	ea4f 3c15 	mov.w	ip, r5, lsr #12
   82d42:	f10c 0c6e 	add.w	ip, ip, #110	; 0x6e
   82d46:	ea4f 014c 	mov.w	r1, ip, lsl #1
   82d4a:	e697      	b.n	82a7c <_malloc_r+0x90>
   82d4c:	0a4b      	lsrs	r3, r1, #9
   82d4e:	2b04      	cmp	r3, #4
   82d50:	d958      	bls.n	82e04 <_malloc_r+0x418>
   82d52:	2b14      	cmp	r3, #20
   82d54:	f200 80ad 	bhi.w	82eb2 <_malloc_r+0x4c6>
   82d58:	f103 025b 	add.w	r2, r3, #91	; 0x5b
   82d5c:	0050      	lsls	r0, r2, #1
   82d5e:	eb07 0080 	add.w	r0, r7, r0, lsl #2
   82d62:	6883      	ldr	r3, [r0, #8]
   82d64:	f8df 81b8 	ldr.w	r8, [pc, #440]	; 82f20 <_malloc_r+0x534>
   82d68:	4283      	cmp	r3, r0
   82d6a:	f000 808a 	beq.w	82e82 <_malloc_r+0x496>
   82d6e:	685a      	ldr	r2, [r3, #4]
   82d70:	f022 0203 	bic.w	r2, r2, #3
   82d74:	4291      	cmp	r1, r2
   82d76:	d202      	bcs.n	82d7e <_malloc_r+0x392>
   82d78:	689b      	ldr	r3, [r3, #8]
   82d7a:	4298      	cmp	r0, r3
   82d7c:	d1f7      	bne.n	82d6e <_malloc_r+0x382>
   82d7e:	68d9      	ldr	r1, [r3, #12]
   82d80:	687a      	ldr	r2, [r7, #4]
   82d82:	60e1      	str	r1, [r4, #12]
   82d84:	60a3      	str	r3, [r4, #8]
   82d86:	608c      	str	r4, [r1, #8]
   82d88:	60dc      	str	r4, [r3, #12]
   82d8a:	e6b6      	b.n	82afa <_malloc_r+0x10e>
   82d8c:	f045 0701 	orr.w	r7, r5, #1
   82d90:	f042 0101 	orr.w	r1, r2, #1
   82d94:	4425      	add	r5, r4
   82d96:	6067      	str	r7, [r4, #4]
   82d98:	4630      	mov	r0, r6
   82d9a:	615d      	str	r5, [r3, #20]
   82d9c:	611d      	str	r5, [r3, #16]
   82d9e:	f8c5 e00c 	str.w	lr, [r5, #12]
   82da2:	f8c5 e008 	str.w	lr, [r5, #8]
   82da6:	6069      	str	r1, [r5, #4]
   82da8:	50aa      	str	r2, [r5, r2]
   82daa:	3408      	adds	r4, #8
   82dac:	f000 f8bc 	bl	82f28 <__malloc_unlock>
   82db0:	e648      	b.n	82a44 <_malloc_r+0x58>
   82db2:	685a      	ldr	r2, [r3, #4]
   82db4:	e6a1      	b.n	82afa <_malloc_r+0x10e>
   82db6:	f109 0901 	add.w	r9, r9, #1
   82dba:	f019 0f03 	tst.w	r9, #3
   82dbe:	f104 0408 	add.w	r4, r4, #8
   82dc2:	f47f aead 	bne.w	82b20 <_malloc_r+0x134>
   82dc6:	e02d      	b.n	82e24 <_malloc_r+0x438>
   82dc8:	f104 0308 	add.w	r3, r4, #8
   82dcc:	6964      	ldr	r4, [r4, #20]
   82dce:	42a3      	cmp	r3, r4
   82dd0:	bf08      	it	eq
   82dd2:	f10c 0c02 	addeq.w	ip, ip, #2
   82dd6:	f43f ae67 	beq.w	82aa8 <_malloc_r+0xbc>
   82dda:	e623      	b.n	82a24 <_malloc_r+0x38>
   82ddc:	4419      	add	r1, r3
   82dde:	6848      	ldr	r0, [r1, #4]
   82de0:	461c      	mov	r4, r3
   82de2:	f854 2f08 	ldr.w	r2, [r4, #8]!
   82de6:	68db      	ldr	r3, [r3, #12]
   82de8:	f040 0501 	orr.w	r5, r0, #1
   82dec:	604d      	str	r5, [r1, #4]
   82dee:	4630      	mov	r0, r6
   82df0:	60d3      	str	r3, [r2, #12]
   82df2:	609a      	str	r2, [r3, #8]
   82df4:	f000 f898 	bl	82f28 <__malloc_unlock>
   82df8:	e624      	b.n	82a44 <_malloc_r+0x58>
   82dfa:	f10c 0c5b 	add.w	ip, ip, #91	; 0x5b
   82dfe:	ea4f 014c 	mov.w	r1, ip, lsl #1
   82e02:	e63b      	b.n	82a7c <_malloc_r+0x90>
   82e04:	098a      	lsrs	r2, r1, #6
   82e06:	3238      	adds	r2, #56	; 0x38
   82e08:	0050      	lsls	r0, r2, #1
   82e0a:	e7a8      	b.n	82d5e <_malloc_r+0x372>
   82e0c:	42bc      	cmp	r4, r7
   82e0e:	f43f af02 	beq.w	82c16 <_malloc_r+0x22a>
   82e12:	68bc      	ldr	r4, [r7, #8]
   82e14:	6862      	ldr	r2, [r4, #4]
   82e16:	f022 0203 	bic.w	r2, r2, #3
   82e1a:	e761      	b.n	82ce0 <_malloc_r+0x2f4>
   82e1c:	f8d8 8000 	ldr.w	r8, [r8]
   82e20:	4598      	cmp	r8, r3
   82e22:	d17a      	bne.n	82f1a <_malloc_r+0x52e>
   82e24:	f01c 0f03 	tst.w	ip, #3
   82e28:	f1a8 0308 	sub.w	r3, r8, #8
   82e2c:	f10c 3cff 	add.w	ip, ip, #4294967295
   82e30:	d1f4      	bne.n	82e1c <_malloc_r+0x430>
   82e32:	687b      	ldr	r3, [r7, #4]
   82e34:	ea23 0300 	bic.w	r3, r3, r0
   82e38:	607b      	str	r3, [r7, #4]
   82e3a:	0040      	lsls	r0, r0, #1
   82e3c:	4298      	cmp	r0, r3
   82e3e:	f63f aebe 	bhi.w	82bbe <_malloc_r+0x1d2>
   82e42:	2800      	cmp	r0, #0
   82e44:	f43f aebb 	beq.w	82bbe <_malloc_r+0x1d2>
   82e48:	4203      	tst	r3, r0
   82e4a:	46cc      	mov	ip, r9
   82e4c:	f47f ae64 	bne.w	82b18 <_malloc_r+0x12c>
   82e50:	0040      	lsls	r0, r0, #1
   82e52:	4203      	tst	r3, r0
   82e54:	f10c 0c04 	add.w	ip, ip, #4
   82e58:	d0fa      	beq.n	82e50 <_malloc_r+0x464>
   82e5a:	e65d      	b.n	82b18 <_malloc_r+0x12c>
   82e5c:	f5bc 7faa 	cmp.w	ip, #340	; 0x154
   82e60:	d819      	bhi.n	82e96 <_malloc_r+0x4aa>
   82e62:	ea4f 3cd5 	mov.w	ip, r5, lsr #15
   82e66:	f10c 0c77 	add.w	ip, ip, #119	; 0x77
   82e6a:	ea4f 014c 	mov.w	r1, ip, lsl #1
   82e6e:	e605      	b.n	82a7c <_malloc_r+0x90>
   82e70:	f44f 5380 	mov.w	r3, #4096	; 0x1000
   82e74:	e6ee      	b.n	82c54 <_malloc_r+0x268>
   82e76:	2301      	movs	r3, #1
   82e78:	f8c8 3004 	str.w	r3, [r8, #4]
   82e7c:	4644      	mov	r4, r8
   82e7e:	2200      	movs	r2, #0
   82e80:	e72e      	b.n	82ce0 <_malloc_r+0x2f4>
   82e82:	1092      	asrs	r2, r2, #2
   82e84:	2001      	movs	r0, #1
   82e86:	4090      	lsls	r0, r2
   82e88:	f8d8 2004 	ldr.w	r2, [r8, #4]
   82e8c:	4619      	mov	r1, r3
   82e8e:	4302      	orrs	r2, r0
   82e90:	f8c8 2004 	str.w	r2, [r8, #4]
   82e94:	e775      	b.n	82d82 <_malloc_r+0x396>
   82e96:	f240 5354 	movw	r3, #1364	; 0x554
   82e9a:	459c      	cmp	ip, r3
   82e9c:	d81b      	bhi.n	82ed6 <_malloc_r+0x4ea>
   82e9e:	ea4f 4c95 	mov.w	ip, r5, lsr #18
   82ea2:	f10c 0c7c 	add.w	ip, ip, #124	; 0x7c
   82ea6:	ea4f 014c 	mov.w	r1, ip, lsl #1
   82eaa:	e5e7      	b.n	82a7c <_malloc_r+0x90>
   82eac:	f10a 0a10 	add.w	sl, sl, #16
   82eb0:	e6a3      	b.n	82bfa <_malloc_r+0x20e>
   82eb2:	2b54      	cmp	r3, #84	; 0x54
   82eb4:	d81f      	bhi.n	82ef6 <_malloc_r+0x50a>
   82eb6:	0b0a      	lsrs	r2, r1, #12
   82eb8:	326e      	adds	r2, #110	; 0x6e
   82eba:	0050      	lsls	r0, r2, #1
   82ebc:	e74f      	b.n	82d5e <_malloc_r+0x372>
   82ebe:	f3cb 010b 	ubfx	r1, fp, #0, #12
   82ec2:	2900      	cmp	r1, #0
   82ec4:	f47f aeb1 	bne.w	82c2a <_malloc_r+0x23e>
   82ec8:	eb0a 0109 	add.w	r1, sl, r9
   82ecc:	68ba      	ldr	r2, [r7, #8]
   82ece:	f041 0101 	orr.w	r1, r1, #1
   82ed2:	6051      	str	r1, [r2, #4]
   82ed4:	e6f6      	b.n	82cc4 <_malloc_r+0x2d8>
   82ed6:	21fc      	movs	r1, #252	; 0xfc
   82ed8:	f04f 0c7e 	mov.w	ip, #126	; 0x7e
   82edc:	e5ce      	b.n	82a7c <_malloc_r+0x90>
   82ede:	2201      	movs	r2, #1
   82ee0:	f04f 0a00 	mov.w	sl, #0
   82ee4:	e6cb      	b.n	82c7e <_malloc_r+0x292>
   82ee6:	f104 0108 	add.w	r1, r4, #8
   82eea:	4630      	mov	r0, r6
   82eec:	f7ff fc16 	bl	8271c <_free_r>
   82ef0:	f8da 3000 	ldr.w	r3, [sl]
   82ef4:	e6e6      	b.n	82cc4 <_malloc_r+0x2d8>
   82ef6:	f5b3 7faa 	cmp.w	r3, #340	; 0x154
   82efa:	d803      	bhi.n	82f04 <_malloc_r+0x518>
   82efc:	0bca      	lsrs	r2, r1, #15
   82efe:	3277      	adds	r2, #119	; 0x77
   82f00:	0050      	lsls	r0, r2, #1
   82f02:	e72c      	b.n	82d5e <_malloc_r+0x372>
   82f04:	f240 5254 	movw	r2, #1364	; 0x554
   82f08:	4293      	cmp	r3, r2
   82f0a:	d803      	bhi.n	82f14 <_malloc_r+0x528>
   82f0c:	0c8a      	lsrs	r2, r1, #18
   82f0e:	327c      	adds	r2, #124	; 0x7c
   82f10:	0050      	lsls	r0, r2, #1
   82f12:	e724      	b.n	82d5e <_malloc_r+0x372>
   82f14:	20fc      	movs	r0, #252	; 0xfc
   82f16:	227e      	movs	r2, #126	; 0x7e
   82f18:	e721      	b.n	82d5e <_malloc_r+0x372>
   82f1a:	687b      	ldr	r3, [r7, #4]
   82f1c:	e78d      	b.n	82e3a <_malloc_r+0x44e>
   82f1e:	bf00      	nop
   82f20:	20070564 	.word	0x20070564

00082f24 <__malloc_lock>:
   82f24:	4770      	bx	lr
   82f26:	bf00      	nop

00082f28 <__malloc_unlock>:
   82f28:	4770      	bx	lr
   82f2a:	bf00      	nop

00082f2c <_sbrk_r>:
   82f2c:	b538      	push	{r3, r4, r5, lr}
   82f2e:	4c07      	ldr	r4, [pc, #28]	; (82f4c <_sbrk_r+0x20>)
   82f30:	2300      	movs	r3, #0
   82f32:	4605      	mov	r5, r0
   82f34:	4608      	mov	r0, r1
   82f36:	6023      	str	r3, [r4, #0]
   82f38:	f7ff f856 	bl	81fe8 <_sbrk>
   82f3c:	1c43      	adds	r3, r0, #1
   82f3e:	d000      	beq.n	82f42 <_sbrk_r+0x16>
   82f40:	bd38      	pop	{r3, r4, r5, pc}
   82f42:	6823      	ldr	r3, [r4, #0]
   82f44:	2b00      	cmp	r3, #0
   82f46:	d0fb      	beq.n	82f40 <_sbrk_r+0x14>
   82f48:	602b      	str	r3, [r5, #0]
   82f4a:	bd38      	pop	{r3, r4, r5, pc}
   82f4c:	20070b78 	.word	0x20070b78

00082f50 <__sread>:
   82f50:	b510      	push	{r4, lr}
   82f52:	460c      	mov	r4, r1
   82f54:	f9b1 100e 	ldrsh.w	r1, [r1, #14]
   82f58:	f000 f938 	bl	831cc <_read_r>
   82f5c:	2800      	cmp	r0, #0
   82f5e:	db03      	blt.n	82f68 <__sread+0x18>
   82f60:	6d23      	ldr	r3, [r4, #80]	; 0x50
   82f62:	4403      	add	r3, r0
   82f64:	6523      	str	r3, [r4, #80]	; 0x50
   82f66:	bd10      	pop	{r4, pc}
   82f68:	89a3      	ldrh	r3, [r4, #12]
   82f6a:	f423 5380 	bic.w	r3, r3, #4096	; 0x1000
   82f6e:	81a3      	strh	r3, [r4, #12]
   82f70:	bd10      	pop	{r4, pc}
   82f72:	bf00      	nop

00082f74 <__swrite>:
   82f74:	e92d 41f0 	stmdb	sp!, {r4, r5, r6, r7, r8, lr}
   82f78:	460c      	mov	r4, r1
   82f7a:	8989      	ldrh	r1, [r1, #12]
   82f7c:	461d      	mov	r5, r3
   82f7e:	05cb      	lsls	r3, r1, #23
   82f80:	4616      	mov	r6, r2
   82f82:	4607      	mov	r7, r0
   82f84:	d506      	bpl.n	82f94 <__swrite+0x20>
   82f86:	f9b4 100e 	ldrsh.w	r1, [r4, #14]
   82f8a:	2200      	movs	r2, #0
   82f8c:	2302      	movs	r3, #2
   82f8e:	f000 f909 	bl	831a4 <_lseek_r>
   82f92:	89a1      	ldrh	r1, [r4, #12]
   82f94:	f421 5180 	bic.w	r1, r1, #4096	; 0x1000
   82f98:	81a1      	strh	r1, [r4, #12]
   82f9a:	4638      	mov	r0, r7
   82f9c:	f9b4 100e 	ldrsh.w	r1, [r4, #14]
   82fa0:	4632      	mov	r2, r6
   82fa2:	462b      	mov	r3, r5
   82fa4:	e8bd 41f0 	ldmia.w	sp!, {r4, r5, r6, r7, r8, lr}
   82fa8:	f000 b814 	b.w	82fd4 <_write_r>

00082fac <__sseek>:
   82fac:	b510      	push	{r4, lr}
   82fae:	460c      	mov	r4, r1
   82fb0:	f9b1 100e 	ldrsh.w	r1, [r1, #14]
   82fb4:	f000 f8f6 	bl	831a4 <_lseek_r>
   82fb8:	89a3      	ldrh	r3, [r4, #12]
   82fba:	1c42      	adds	r2, r0, #1
   82fbc:	bf0e      	itee	eq
   82fbe:	f423 5380 	biceq.w	r3, r3, #4096	; 0x1000
   82fc2:	f443 5380 	orrne.w	r3, r3, #4096	; 0x1000
   82fc6:	6520      	strne	r0, [r4, #80]	; 0x50
   82fc8:	81a3      	strh	r3, [r4, #12]
   82fca:	bd10      	pop	{r4, pc}

00082fcc <__sclose>:
   82fcc:	f9b1 100e 	ldrsh.w	r1, [r1, #14]
   82fd0:	f000 b868 	b.w	830a4 <_close_r>

00082fd4 <_write_r>:
   82fd4:	b570      	push	{r4, r5, r6, lr}
   82fd6:	4c08      	ldr	r4, [pc, #32]	; (82ff8 <_write_r+0x24>)
   82fd8:	4606      	mov	r6, r0
   82fda:	2500      	movs	r5, #0
   82fdc:	4608      	mov	r0, r1
   82fde:	4611      	mov	r1, r2
   82fe0:	461a      	mov	r2, r3
   82fe2:	6025      	str	r5, [r4, #0]
   82fe4:	f7fd fa70 	bl	804c8 <_write>
   82fe8:	1c43      	adds	r3, r0, #1
   82fea:	d000      	beq.n	82fee <_write_r+0x1a>
   82fec:	bd70      	pop	{r4, r5, r6, pc}
   82fee:	6823      	ldr	r3, [r4, #0]
   82ff0:	2b00      	cmp	r3, #0
   82ff2:	d0fb      	beq.n	82fec <_write_r+0x18>
   82ff4:	6033      	str	r3, [r6, #0]
   82ff6:	bd70      	pop	{r4, r5, r6, pc}
   82ff8:	20070b78 	.word	0x20070b78

00082ffc <__register_exitproc>:
   82ffc:	b5f0      	push	{r4, r5, r6, r7, lr}
   82ffe:	4c27      	ldr	r4, [pc, #156]	; (8309c <__register_exitproc+0xa0>)
   83000:	b085      	sub	sp, #20
   83002:	6826      	ldr	r6, [r4, #0]
   83004:	4607      	mov	r7, r0
   83006:	f8d6 4148 	ldr.w	r4, [r6, #328]	; 0x148
   8300a:	2c00      	cmp	r4, #0
   8300c:	d040      	beq.n	83090 <__register_exitproc+0x94>
   8300e:	6865      	ldr	r5, [r4, #4]
   83010:	2d1f      	cmp	r5, #31
   83012:	dd1e      	ble.n	83052 <__register_exitproc+0x56>
   83014:	4822      	ldr	r0, [pc, #136]	; (830a0 <__register_exitproc+0xa4>)
   83016:	b918      	cbnz	r0, 83020 <__register_exitproc+0x24>
   83018:	f04f 30ff 	mov.w	r0, #4294967295
   8301c:	b005      	add	sp, #20
   8301e:	bdf0      	pop	{r4, r5, r6, r7, pc}
   83020:	f44f 70c8 	mov.w	r0, #400	; 0x190
   83024:	9103      	str	r1, [sp, #12]
   83026:	9202      	str	r2, [sp, #8]
   83028:	9301      	str	r3, [sp, #4]
   8302a:	f7ff fcd7 	bl	829dc <malloc>
   8302e:	9903      	ldr	r1, [sp, #12]
   83030:	4604      	mov	r4, r0
   83032:	9a02      	ldr	r2, [sp, #8]
   83034:	9b01      	ldr	r3, [sp, #4]
   83036:	2800      	cmp	r0, #0
   83038:	d0ee      	beq.n	83018 <__register_exitproc+0x1c>
   8303a:	f8d6 5148 	ldr.w	r5, [r6, #328]	; 0x148
   8303e:	2000      	movs	r0, #0
   83040:	6025      	str	r5, [r4, #0]
   83042:	6060      	str	r0, [r4, #4]
   83044:	4605      	mov	r5, r0
   83046:	f8c6 4148 	str.w	r4, [r6, #328]	; 0x148
   8304a:	f8c4 0188 	str.w	r0, [r4, #392]	; 0x188
   8304e:	f8c4 018c 	str.w	r0, [r4, #396]	; 0x18c
   83052:	b93f      	cbnz	r7, 83064 <__register_exitproc+0x68>
   83054:	1c6b      	adds	r3, r5, #1
   83056:	2000      	movs	r0, #0
   83058:	3502      	adds	r5, #2
   8305a:	6063      	str	r3, [r4, #4]
   8305c:	f844 1025 	str.w	r1, [r4, r5, lsl #2]
   83060:	b005      	add	sp, #20
   83062:	bdf0      	pop	{r4, r5, r6, r7, pc}
   83064:	2601      	movs	r6, #1
   83066:	40ae      	lsls	r6, r5
   83068:	eb04 0085 	add.w	r0, r4, r5, lsl #2
   8306c:	f8c0 2088 	str.w	r2, [r0, #136]	; 0x88
   83070:	f8d4 2188 	ldr.w	r2, [r4, #392]	; 0x188
   83074:	2f02      	cmp	r7, #2
   83076:	ea42 0206 	orr.w	r2, r2, r6
   8307a:	f8c4 2188 	str.w	r2, [r4, #392]	; 0x188
   8307e:	f8c0 3108 	str.w	r3, [r0, #264]	; 0x108
   83082:	d1e7      	bne.n	83054 <__register_exitproc+0x58>
   83084:	f8d4 318c 	ldr.w	r3, [r4, #396]	; 0x18c
   83088:	431e      	orrs	r6, r3
   8308a:	f8c4 618c 	str.w	r6, [r4, #396]	; 0x18c
   8308e:	e7e1      	b.n	83054 <__register_exitproc+0x58>
   83090:	f506 74a6 	add.w	r4, r6, #332	; 0x14c
   83094:	f8c6 4148 	str.w	r4, [r6, #328]	; 0x148
   83098:	e7b9      	b.n	8300e <__register_exitproc+0x12>
   8309a:	bf00      	nop
   8309c:	00083524 	.word	0x00083524
   830a0:	000829dd 	.word	0x000829dd

000830a4 <_close_r>:
   830a4:	b538      	push	{r3, r4, r5, lr}
   830a6:	4c07      	ldr	r4, [pc, #28]	; (830c4 <_close_r+0x20>)
   830a8:	2300      	movs	r3, #0
   830aa:	4605      	mov	r5, r0
   830ac:	4608      	mov	r0, r1
   830ae:	6023      	str	r3, [r4, #0]
   830b0:	f7fe ffb4 	bl	8201c <_close>
   830b4:	1c43      	adds	r3, r0, #1
   830b6:	d000      	beq.n	830ba <_close_r+0x16>
   830b8:	bd38      	pop	{r3, r4, r5, pc}
   830ba:	6823      	ldr	r3, [r4, #0]
   830bc:	2b00      	cmp	r3, #0
   830be:	d0fb      	beq.n	830b8 <_close_r+0x14>
   830c0:	602b      	str	r3, [r5, #0]
   830c2:	bd38      	pop	{r3, r4, r5, pc}
   830c4:	20070b78 	.word	0x20070b78

000830c8 <_fclose_r>:
   830c8:	b570      	push	{r4, r5, r6, lr}
   830ca:	460c      	mov	r4, r1
   830cc:	4605      	mov	r5, r0
   830ce:	b131      	cbz	r1, 830de <_fclose_r+0x16>
   830d0:	b110      	cbz	r0, 830d8 <_fclose_r+0x10>
   830d2:	6b83      	ldr	r3, [r0, #56]	; 0x38
   830d4:	2b00      	cmp	r3, #0
   830d6:	d02f      	beq.n	83138 <_fclose_r+0x70>
   830d8:	f9b4 300c 	ldrsh.w	r3, [r4, #12]
   830dc:	b90b      	cbnz	r3, 830e2 <_fclose_r+0x1a>
   830de:	2000      	movs	r0, #0
   830e0:	bd70      	pop	{r4, r5, r6, pc}
   830e2:	4628      	mov	r0, r5
   830e4:	4621      	mov	r1, r4
   830e6:	f7ff fa19 	bl	8251c <_fflush_r>
   830ea:	6ae3      	ldr	r3, [r4, #44]	; 0x2c
   830ec:	4606      	mov	r6, r0
   830ee:	b133      	cbz	r3, 830fe <_fclose_r+0x36>
   830f0:	4628      	mov	r0, r5
   830f2:	69e1      	ldr	r1, [r4, #28]
   830f4:	4798      	blx	r3
   830f6:	2800      	cmp	r0, #0
   830f8:	bfb8      	it	lt
   830fa:	f04f 36ff 	movlt.w	r6, #4294967295
   830fe:	89a3      	ldrh	r3, [r4, #12]
   83100:	061b      	lsls	r3, r3, #24
   83102:	d41c      	bmi.n	8313e <_fclose_r+0x76>
   83104:	6b21      	ldr	r1, [r4, #48]	; 0x30
   83106:	b141      	cbz	r1, 8311a <_fclose_r+0x52>
   83108:	f104 0340 	add.w	r3, r4, #64	; 0x40
   8310c:	4299      	cmp	r1, r3
   8310e:	d002      	beq.n	83116 <_fclose_r+0x4e>
   83110:	4628      	mov	r0, r5
   83112:	f7ff fb03 	bl	8271c <_free_r>
   83116:	2300      	movs	r3, #0
   83118:	6323      	str	r3, [r4, #48]	; 0x30
   8311a:	6c61      	ldr	r1, [r4, #68]	; 0x44
   8311c:	b121      	cbz	r1, 83128 <_fclose_r+0x60>
   8311e:	4628      	mov	r0, r5
   83120:	f7ff fafc 	bl	8271c <_free_r>
   83124:	2300      	movs	r3, #0
   83126:	6463      	str	r3, [r4, #68]	; 0x44
   83128:	f7ff fa8e 	bl	82648 <__sfp_lock_acquire>
   8312c:	2300      	movs	r3, #0
   8312e:	81a3      	strh	r3, [r4, #12]
   83130:	f7ff fa8c 	bl	8264c <__sfp_lock_release>
   83134:	4630      	mov	r0, r6
   83136:	bd70      	pop	{r4, r5, r6, pc}
   83138:	f7ff fa0c 	bl	82554 <__sinit>
   8313c:	e7cc      	b.n	830d8 <_fclose_r+0x10>
   8313e:	4628      	mov	r0, r5
   83140:	6921      	ldr	r1, [r4, #16]
   83142:	f7ff faeb 	bl	8271c <_free_r>
   83146:	e7dd      	b.n	83104 <_fclose_r+0x3c>

00083148 <fclose>:
   83148:	4b02      	ldr	r3, [pc, #8]	; (83154 <fclose+0xc>)
   8314a:	4601      	mov	r1, r0
   8314c:	6818      	ldr	r0, [r3, #0]
   8314e:	f7ff bfbb 	b.w	830c8 <_fclose_r>
   83152:	bf00      	nop
   83154:	20070560 	.word	0x20070560

00083158 <_fstat_r>:
   83158:	b538      	push	{r3, r4, r5, lr}
   8315a:	4c08      	ldr	r4, [pc, #32]	; (8317c <_fstat_r+0x24>)
   8315c:	2300      	movs	r3, #0
   8315e:	4605      	mov	r5, r0
   83160:	4608      	mov	r0, r1
   83162:	4611      	mov	r1, r2
   83164:	6023      	str	r3, [r4, #0]
   83166:	f7fe ff5d 	bl	82024 <_fstat>
   8316a:	1c43      	adds	r3, r0, #1
   8316c:	d000      	beq.n	83170 <_fstat_r+0x18>
   8316e:	bd38      	pop	{r3, r4, r5, pc}
   83170:	6823      	ldr	r3, [r4, #0]
   83172:	2b00      	cmp	r3, #0
   83174:	d0fb      	beq.n	8316e <_fstat_r+0x16>
   83176:	602b      	str	r3, [r5, #0]
   83178:	bd38      	pop	{r3, r4, r5, pc}
   8317a:	bf00      	nop
   8317c:	20070b78 	.word	0x20070b78

00083180 <_isatty_r>:
   83180:	b538      	push	{r3, r4, r5, lr}
   83182:	4c07      	ldr	r4, [pc, #28]	; (831a0 <_isatty_r+0x20>)
   83184:	2300      	movs	r3, #0
   83186:	4605      	mov	r5, r0
   83188:	4608      	mov	r0, r1
   8318a:	6023      	str	r3, [r4, #0]
   8318c:	f7fe ff50 	bl	82030 <_isatty>
   83190:	1c43      	adds	r3, r0, #1
   83192:	d000      	beq.n	83196 <_isatty_r+0x16>
   83194:	bd38      	pop	{r3, r4, r5, pc}
   83196:	6823      	ldr	r3, [r4, #0]
   83198:	2b00      	cmp	r3, #0
   8319a:	d0fb      	beq.n	83194 <_isatty_r+0x14>
   8319c:	602b      	str	r3, [r5, #0]
   8319e:	bd38      	pop	{r3, r4, r5, pc}
   831a0:	20070b78 	.word	0x20070b78

000831a4 <_lseek_r>:
   831a4:	b570      	push	{r4, r5, r6, lr}
   831a6:	4c08      	ldr	r4, [pc, #32]	; (831c8 <_lseek_r+0x24>)
   831a8:	4606      	mov	r6, r0
   831aa:	2500      	movs	r5, #0
   831ac:	4608      	mov	r0, r1
   831ae:	4611      	mov	r1, r2
   831b0:	461a      	mov	r2, r3
   831b2:	6025      	str	r5, [r4, #0]
   831b4:	f7fe ff3e 	bl	82034 <_lseek>
   831b8:	1c43      	adds	r3, r0, #1
   831ba:	d000      	beq.n	831be <_lseek_r+0x1a>
   831bc:	bd70      	pop	{r4, r5, r6, pc}
   831be:	6823      	ldr	r3, [r4, #0]
   831c0:	2b00      	cmp	r3, #0
   831c2:	d0fb      	beq.n	831bc <_lseek_r+0x18>
   831c4:	6033      	str	r3, [r6, #0]
   831c6:	bd70      	pop	{r4, r5, r6, pc}
   831c8:	20070b78 	.word	0x20070b78

000831cc <_read_r>:
   831cc:	b570      	push	{r4, r5, r6, lr}
   831ce:	4c08      	ldr	r4, [pc, #32]	; (831f0 <_read_r+0x24>)
   831d0:	4606      	mov	r6, r0
   831d2:	2500      	movs	r5, #0
   831d4:	4608      	mov	r0, r1
   831d6:	4611      	mov	r1, r2
   831d8:	461a      	mov	r2, r3
   831da:	6025      	str	r5, [r4, #0]
   831dc:	f7fc ffb4 	bl	80148 <_read>
   831e0:	1c43      	adds	r3, r0, #1
   831e2:	d000      	beq.n	831e6 <_read_r+0x1a>
   831e4:	bd70      	pop	{r4, r5, r6, pc}
   831e6:	6823      	ldr	r3, [r4, #0]
   831e8:	2b00      	cmp	r3, #0
   831ea:	d0fb      	beq.n	831e4 <_read_r+0x18>
   831ec:	6033      	str	r3, [r6, #0]
   831ee:	bd70      	pop	{r4, r5, r6, pc}
   831f0:	20070b78 	.word	0x20070b78
   831f4:	70784520 	.word	0x70784520
   831f8:	65746365 	.word	0x65746365
   831fc:	52542064 	.word	0x52542064
   83200:	57204555 	.word	0x57204555
   83204:	46207361 	.word	0x46207361
   83208:	45534c41 	.word	0x45534c41
   8320c:	00000000 	.word	0x00000000
   83210:	742f2e2e 	.word	0x742f2e2e
   83214:	2f747365 	.word	0x2f747365
   83218:	74736574 	.word	0x74736574
   8321c:	6c65645f 	.word	0x6c65645f
   83220:	75467961 	.word	0x75467961
   83224:	6974636e 	.word	0x6974636e
   83228:	2e736e6f 	.word	0x2e736e6f
   8322c:	00000063 	.word	0x00000063
   83230:	74736574 	.word	0x74736574
   83234:	6c65645f 	.word	0x6c65645f
   83238:	69547961 	.word	0x69547961
   8323c:	4972656d 	.word	0x4972656d
   83240:	696e4973 	.word	0x696e4973
   83244:	6c616974 	.word	0x6c616974
   83248:	64657369 	.word	0x64657369
   8324c:	706f7250 	.word	0x706f7250
   83250:	796c7265 	.word	0x796c7265
   83254:	00000000 	.word	0x00000000
   83258:	74736574 	.word	0x74736574
   8325c:	6c65645f 	.word	0x6c65645f
   83260:	6f437961 	.word	0x6f437961
   83264:	73746e75 	.word	0x73746e75
   83268:	706f7250 	.word	0x706f7250
   8326c:	796c7265 	.word	0x796c7265
   83270:	00000000 	.word	0x00000000
   83274:	742f2e2e 	.word	0x742f2e2e
   83278:	2f747365 	.word	0x2f747365
   8327c:	74736574 	.word	0x74736574
   83280:	6174735f 	.word	0x6174735f
   83284:	614d6574 	.word	0x614d6574
   83288:	6e696863 	.word	0x6e696863
   8328c:	00632e65 	.word	0x00632e65
   83290:	74736574 	.word	0x74736574
   83294:	6174735f 	.word	0x6174735f
   83298:	614d6574 	.word	0x614d6574
   8329c:	6e696863 	.word	0x6e696863
   832a0:	61745365 	.word	0x61745365
   832a4:	49737472 	.word	0x49737472
   832a8:	636f4c6e 	.word	0x636f4c6e
   832ac:	5364656b 	.word	0x5364656b
   832b0:	65746174 	.word	0x65746174
   832b4:	00000000 	.word	0x00000000
   832b8:	74736574 	.word	0x74736574
   832bc:	6174735f 	.word	0x6174735f
   832c0:	6f476574 	.word	0x6f476574
   832c4:	6f547365 	.word	0x6f547365
   832c8:	68737550 	.word	0x68737550
   832cc:	57656e4f 	.word	0x57656e4f
   832d0:	466e6568 	.word	0x466e6568
   832d4:	74737269 	.word	0x74737269
   832d8:	72726f43 	.word	0x72726f43
   832dc:	42746365 	.word	0x42746365
   832e0:	6f747475 	.word	0x6f747475
   832e4:	5073496e 	.word	0x5073496e
   832e8:	73736572 	.word	0x73736572
   832ec:	00006465 	.word	0x00006465
   832f0:	74736574 	.word	0x74736574
   832f4:	6174735f 	.word	0x6174735f
   832f8:	6f476574 	.word	0x6f476574
   832fc:	6f547365 	.word	0x6f547365
   83300:	6b636f4c 	.word	0x6b636f4c
   83304:	68576465 	.word	0x68576465
   83308:	69466e65 	.word	0x69466e65
   8330c:	49747372 	.word	0x49747372
   83310:	726f636e 	.word	0x726f636e
   83314:	74636572 	.word	0x74636572
   83318:	74747542 	.word	0x74747542
   8331c:	73496e6f 	.word	0x73496e6f
   83320:	73657250 	.word	0x73657250
   83324:	00646573 	.word	0x00646573
   83328:	74736574 	.word	0x74736574
   8332c:	6174735f 	.word	0x6174735f
   83330:	6f476574 	.word	0x6f476574
   83334:	6f547365 	.word	0x6f547365
   83338:	68737550 	.word	0x68737550
   8333c:	576f7754 	.word	0x576f7754
   83340:	536e6568 	.word	0x536e6568
   83344:	6e6f6365 	.word	0x6e6f6365
   83348:	726f4364 	.word	0x726f4364
   8334c:	74636572 	.word	0x74636572
   83350:	74747542 	.word	0x74747542
   83354:	73496e6f 	.word	0x73496e6f
   83358:	73657250 	.word	0x73657250
   8335c:	00646573 	.word	0x00646573
   83360:	74736574 	.word	0x74736574
   83364:	6174735f 	.word	0x6174735f
   83368:	6f476574 	.word	0x6f476574
   8336c:	6f547365 	.word	0x6f547365
   83370:	6b636f4c 	.word	0x6b636f4c
   83374:	68576465 	.word	0x68576465
   83378:	65536e65 	.word	0x65536e65
   8337c:	646e6f63 	.word	0x646e6f63
   83380:	6f636e49 	.word	0x6f636e49
   83384:	63657272 	.word	0x63657272
   83388:	74754274 	.word	0x74754274
   8338c:	496e6f74 	.word	0x496e6f74
   83390:	65725073 	.word	0x65725073
   83394:	64657373 	.word	0x64657373
   83398:	00000000 	.word	0x00000000
   8339c:	74736574 	.word	0x74736574
   833a0:	6174735f 	.word	0x6174735f
   833a4:	6f476574 	.word	0x6f476574
   833a8:	6f547365 	.word	0x6f547365
   833ac:	68737550 	.word	0x68737550
   833b0:	65726854 	.word	0x65726854
   833b4:	65685765 	.word	0x65685765
   833b8:	6968546e 	.word	0x6968546e
   833bc:	6f436472 	.word	0x6f436472
   833c0:	63657272 	.word	0x63657272
   833c4:	74754274 	.word	0x74754274
   833c8:	496e6f74 	.word	0x496e6f74
   833cc:	65725073 	.word	0x65725073
   833d0:	64657373 	.word	0x64657373
   833d4:	00000000 	.word	0x00000000
   833d8:	74736574 	.word	0x74736574
   833dc:	6174735f 	.word	0x6174735f
   833e0:	6f476574 	.word	0x6f476574
   833e4:	6f547365 	.word	0x6f547365
   833e8:	6b636f4c 	.word	0x6b636f4c
   833ec:	68576465 	.word	0x68576465
   833f0:	68546e65 	.word	0x68546e65
   833f4:	49647269 	.word	0x49647269
   833f8:	726f636e 	.word	0x726f636e
   833fc:	74636572 	.word	0x74636572
   83400:	74747542 	.word	0x74747542
   83404:	73496e6f 	.word	0x73496e6f
   83408:	73657250 	.word	0x73657250
   8340c:	00646573 	.word	0x00646573
   83410:	74736574 	.word	0x74736574
   83414:	6174735f 	.word	0x6174735f
   83418:	6f476574 	.word	0x6f476574
   8341c:	6f547365 	.word	0x6f547365
   83420:	6e65704f 	.word	0x6e65704f
   83424:	6e656857 	.word	0x6e656857
   83428:	72756f46 	.word	0x72756f46
   8342c:	6f436874 	.word	0x6f436874
   83430:	63657272 	.word	0x63657272
   83434:	74754274 	.word	0x74754274
   83438:	496e6f74 	.word	0x496e6f74
   8343c:	65725073 	.word	0x65725073
   83440:	64657373 	.word	0x64657373
   83444:	00000000 	.word	0x00000000
   83448:	74736574 	.word	0x74736574
   8344c:	6174735f 	.word	0x6174735f
   83450:	6f476574 	.word	0x6f476574
   83454:	6f547365 	.word	0x6f547365
   83458:	6b636f4c 	.word	0x6b636f4c
   8345c:	68576465 	.word	0x68576465
   83460:	6f466e65 	.word	0x6f466e65
   83464:	68747275 	.word	0x68747275
   83468:	6f636e49 	.word	0x6f636e49
   8346c:	63657272 	.word	0x63657272
   83470:	74754274 	.word	0x74754274
   83474:	496e6f74 	.word	0x496e6f74
   83478:	65725073 	.word	0x65725073
   8347c:	64657373 	.word	0x64657373
   83480:	00000000 	.word	0x00000000

00083484 <UnitySizeMask>:
   83484:	000000ff 0000ffff 0000ffff ffffffff     ................
   83494:	ffffffff ffffffff ffffffff              ............

000834a0 <UnityStrOk>:
   834a0:	00004b4f                                OK..

000834a4 <UnityStrSpacer>:
   834a4:	0000202e                                . ..

000834a8 <UnityStrWas>:
   834a8:	73615720 00000020                        Was ...

000834b0 <UnityStrFail>:
   834b0:	4c494146 00000000                       FAIL....

000834b8 <UnityStrExpected>:
   834b8:	70784520 65746365 00002064               Expected ..

000834c4 <UnityStrBreaker>:
   834c4:	2d2d2d2d 2d2d2d2d 2d2d2d2d 2d2d2d2d     ----------------
   834d4:	2d2d2d2d 002d2d2d                       -------.

000834dc <UnityStrResultsFailures>:
   834dc:	69614620 6572756c 00002073               Failures ..

000834e8 <UnityStrResultsIgnored>:
   834e8:	6e674920 6465726f 00000020               Ignored ...

000834f4 <UnityStrResultsTests>:
   834f4:	73655420 00207374                        Tests .

000834fc <UnityStrPass>:
   834fc:	53534150 00000000                       PASS....

00083504 <UnityStrDelta>:
   83504:	6c615620 20736575 20746f4e 68746957      Values Not With
   83514:	44206e69 61746c65 00000020 00000043     in Delta ...C...

00083524 <_global_impure_ptr>:
   83524:	20070138                                8.. 

00083528 <_init>:
   83528:	b5f8      	push	{r3, r4, r5, r6, r7, lr}
   8352a:	bf00      	nop
   8352c:	bcf8      	pop	{r3, r4, r5, r6, r7}
   8352e:	bc08      	pop	{r3}
   83530:	469e      	mov	lr, r3
   83532:	4770      	bx	lr

00083534 <__init_array_start>:
   83534:	000823b5 	.word	0x000823b5

00083538 <__frame_dummy_init_array_entry>:
   83538:	00080119                                ....

0008353c <_fini>:
   8353c:	b5f8      	push	{r3, r4, r5, r6, r7, lr}
   8353e:	bf00      	nop
   83540:	bcf8      	pop	{r3, r4, r5, r6, r7}
   83542:	bc08      	pop	{r3}
   83544:	469e      	mov	lr, r3
   83546:	4770      	bx	lr

00083548 <__fini_array_start>:
   83548:	000800f5 	.word	0x000800f5

Disassembly of section .relocate:

20070000 <SystemInit>:
20070000:	f44f 6380 	mov.w	r3, #1024	; 0x400
20070004:	4a20      	ldr	r2, [pc, #128]	; (20070088 <SystemInit+0x88>)
20070006:	6013      	str	r3, [r2, #0]
20070008:	f502 7200 	add.w	r2, r2, #512	; 0x200
2007000c:	6013      	str	r3, [r2, #0]
2007000e:	4b1f      	ldr	r3, [pc, #124]	; (2007008c <SystemInit+0x8c>)
20070010:	6a1b      	ldr	r3, [r3, #32]
20070012:	f013 7f80 	tst.w	r3, #16777216	; 0x1000000
20070016:	d107      	bne.n	20070028 <SystemInit+0x28>
20070018:	4a1d      	ldr	r2, [pc, #116]	; (20070090 <SystemInit+0x90>)
2007001a:	4b1c      	ldr	r3, [pc, #112]	; (2007008c <SystemInit+0x8c>)
2007001c:	621a      	str	r2, [r3, #32]
2007001e:	461a      	mov	r2, r3
20070020:	6e93      	ldr	r3, [r2, #104]	; 0x68
20070022:	f013 0f01 	tst.w	r3, #1
20070026:	d0fb      	beq.n	20070020 <SystemInit+0x20>
20070028:	4a1a      	ldr	r2, [pc, #104]	; (20070094 <SystemInit+0x94>)
2007002a:	4b18      	ldr	r3, [pc, #96]	; (2007008c <SystemInit+0x8c>)
2007002c:	621a      	str	r2, [r3, #32]
2007002e:	461a      	mov	r2, r3
20070030:	6e93      	ldr	r3, [r2, #104]	; 0x68
20070032:	f413 3f80 	tst.w	r3, #65536	; 0x10000
20070036:	d0fb      	beq.n	20070030 <SystemInit+0x30>
20070038:	4b14      	ldr	r3, [pc, #80]	; (2007008c <SystemInit+0x8c>)
2007003a:	6b1a      	ldr	r2, [r3, #48]	; 0x30
2007003c:	f022 0203 	bic.w	r2, r2, #3
20070040:	f042 0201 	orr.w	r2, r2, #1
20070044:	631a      	str	r2, [r3, #48]	; 0x30
20070046:	461a      	mov	r2, r3
20070048:	6e93      	ldr	r3, [r2, #104]	; 0x68
2007004a:	f013 0f08 	tst.w	r3, #8
2007004e:	d0fb      	beq.n	20070048 <SystemInit+0x48>
20070050:	4a11      	ldr	r2, [pc, #68]	; (20070098 <SystemInit+0x98>)
20070052:	4b0e      	ldr	r3, [pc, #56]	; (2007008c <SystemInit+0x8c>)
20070054:	629a      	str	r2, [r3, #40]	; 0x28
20070056:	461a      	mov	r2, r3
20070058:	6e93      	ldr	r3, [r2, #104]	; 0x68
2007005a:	f013 0f02 	tst.w	r3, #2
2007005e:	d0fb      	beq.n	20070058 <SystemInit+0x58>
20070060:	2211      	movs	r2, #17
20070062:	4b0a      	ldr	r3, [pc, #40]	; (2007008c <SystemInit+0x8c>)
20070064:	631a      	str	r2, [r3, #48]	; 0x30
20070066:	461a      	mov	r2, r3
20070068:	6e93      	ldr	r3, [r2, #104]	; 0x68
2007006a:	f013 0f08 	tst.w	r3, #8
2007006e:	d0fb      	beq.n	20070068 <SystemInit+0x68>
20070070:	2212      	movs	r2, #18
20070072:	4b06      	ldr	r3, [pc, #24]	; (2007008c <SystemInit+0x8c>)
20070074:	631a      	str	r2, [r3, #48]	; 0x30
20070076:	461a      	mov	r2, r3
20070078:	6e93      	ldr	r3, [r2, #104]	; 0x68
2007007a:	f013 0f08 	tst.w	r3, #8
2007007e:	d0fb      	beq.n	20070078 <SystemInit+0x78>
20070080:	4a06      	ldr	r2, [pc, #24]	; (2007009c <SystemInit+0x9c>)
20070082:	4b07      	ldr	r3, [pc, #28]	; (200700a0 <SystemInit+0xa0>)
20070084:	601a      	str	r2, [r3, #0]
20070086:	4770      	bx	lr
20070088:	400e0a00 	.word	0x400e0a00
2007008c:	400e0600 	.word	0x400e0600
20070090:	00370809 	.word	0x00370809
20070094:	01370809 	.word	0x01370809
20070098:	200d3f01 	.word	0x200d3f01
2007009c:	0501bd00 	.word	0x0501bd00
200700a0:	20070130 	.word	0x20070130

200700a4 <system_init_flash>:
200700a4:	4b1b      	ldr	r3, [pc, #108]	; (20070114 <system_init_flash+0x70>)
200700a6:	4298      	cmp	r0, r3
200700a8:	d806      	bhi.n	200700b8 <system_init_flash+0x14>
200700aa:	2300      	movs	r3, #0
200700ac:	4a1a      	ldr	r2, [pc, #104]	; (20070118 <system_init_flash+0x74>)
200700ae:	6013      	str	r3, [r2, #0]
200700b0:	f502 7200 	add.w	r2, r2, #512	; 0x200
200700b4:	6013      	str	r3, [r2, #0]
200700b6:	4770      	bx	lr
200700b8:	4b18      	ldr	r3, [pc, #96]	; (2007011c <system_init_flash+0x78>)
200700ba:	4298      	cmp	r0, r3
200700bc:	d807      	bhi.n	200700ce <system_init_flash+0x2a>
200700be:	f44f 7380 	mov.w	r3, #256	; 0x100
200700c2:	4a15      	ldr	r2, [pc, #84]	; (20070118 <system_init_flash+0x74>)
200700c4:	6013      	str	r3, [r2, #0]
200700c6:	f502 7200 	add.w	r2, r2, #512	; 0x200
200700ca:	6013      	str	r3, [r2, #0]
200700cc:	4770      	bx	lr
200700ce:	4b14      	ldr	r3, [pc, #80]	; (20070120 <system_init_flash+0x7c>)
200700d0:	4298      	cmp	r0, r3
200700d2:	d807      	bhi.n	200700e4 <system_init_flash+0x40>
200700d4:	f44f 7300 	mov.w	r3, #512	; 0x200
200700d8:	4a0f      	ldr	r2, [pc, #60]	; (20070118 <system_init_flash+0x74>)
200700da:	6013      	str	r3, [r2, #0]
200700dc:	f502 7200 	add.w	r2, r2, #512	; 0x200
200700e0:	6013      	str	r3, [r2, #0]
200700e2:	4770      	bx	lr
200700e4:	4b0f      	ldr	r3, [pc, #60]	; (20070124 <system_init_flash+0x80>)
200700e6:	4298      	cmp	r0, r3
200700e8:	d807      	bhi.n	200700fa <system_init_flash+0x56>
200700ea:	f44f 7340 	mov.w	r3, #768	; 0x300
200700ee:	4a0a      	ldr	r2, [pc, #40]	; (20070118 <system_init_flash+0x74>)
200700f0:	6013      	str	r3, [r2, #0]
200700f2:	f502 7200 	add.w	r2, r2, #512	; 0x200
200700f6:	6013      	str	r3, [r2, #0]
200700f8:	4770      	bx	lr
200700fa:	4b0b      	ldr	r3, [pc, #44]	; (20070128 <system_init_flash+0x84>)
200700fc:	4298      	cmp	r0, r3
200700fe:	bf94      	ite	ls
20070100:	f44f 6380 	movls.w	r3, #1024	; 0x400
20070104:	f44f 63a0 	movhi.w	r3, #1280	; 0x500
20070108:	4a03      	ldr	r2, [pc, #12]	; (20070118 <system_init_flash+0x74>)
2007010a:	6013      	str	r3, [r2, #0]
2007010c:	f502 7200 	add.w	r2, r2, #512	; 0x200
20070110:	6013      	str	r3, [r2, #0]
20070112:	4770      	bx	lr
20070114:	0121eabf 	.word	0x0121eabf
20070118:	400e0a00 	.word	0x400e0a00
2007011c:	02faf07f 	.word	0x02faf07f
20070120:	03d08fff 	.word	0x03d08fff
20070124:	04c4b3ff 	.word	0x04c4b3ff
20070128:	055d4a7f 	.word	0x055d4a7f

2007012c <g_interrupt_enabled>:
2007012c:	00000001                                ....

20070130 <SystemCoreClock>:
20070130:	003d0900 00000000                       ..=.....

20070138 <impure_data>:
20070138:	00000000 20070424 2007048c 200704f4     ....$.. ... ... 
	...
2007016c:	00083520 00000000 00000000 00000000      5..............
	...
200701e0:	00000001 00000000 abcd330e e66d1234     .........3..4.m.
200701f0:	0005deec 0000000b 00000000 00000000     ................
	...

20070560 <_impure_ptr>:
20070560:	20070138                                8.. 

20070564 <__malloc_av_>:
	...
2007056c:	20070564 20070564 2007056c 2007056c     d.. d.. l.. l.. 
2007057c:	20070574 20070574 2007057c 2007057c     t.. t.. |.. |.. 
2007058c:	20070584 20070584 2007058c 2007058c     ... ... ... ... 
2007059c:	20070594 20070594 2007059c 2007059c     ... ... ... ... 
200705ac:	200705a4 200705a4 200705ac 200705ac     ... ... ... ... 
200705bc:	200705b4 200705b4 200705bc 200705bc     ... ... ... ... 
200705cc:	200705c4 200705c4 200705cc 200705cc     ... ... ... ... 
200705dc:	200705d4 200705d4 200705dc 200705dc     ... ... ... ... 
200705ec:	200705e4 200705e4 200705ec 200705ec     ... ... ... ... 
200705fc:	200705f4 200705f4 200705fc 200705fc     ... ... ... ... 
2007060c:	20070604 20070604 2007060c 2007060c     ... ... ... ... 
2007061c:	20070614 20070614 2007061c 2007061c     ... ... ... ... 
2007062c:	20070624 20070624 2007062c 2007062c     $.. $.. ,.. ,.. 
2007063c:	20070634 20070634 2007063c 2007063c     4.. 4.. <.. <.. 
2007064c:	20070644 20070644 2007064c 2007064c     D.. D.. L.. L.. 
2007065c:	20070654 20070654 2007065c 2007065c     T.. T.. \.. \.. 
2007066c:	20070664 20070664 2007066c 2007066c     d.. d.. l.. l.. 
2007067c:	20070674 20070674 2007067c 2007067c     t.. t.. |.. |.. 
2007068c:	20070684 20070684 2007068c 2007068c     ... ... ... ... 
2007069c:	20070694 20070694 2007069c 2007069c     ... ... ... ... 
200706ac:	200706a4 200706a4 200706ac 200706ac     ... ... ... ... 
200706bc:	200706b4 200706b4 200706bc 200706bc     ... ... ... ... 
200706cc:	200706c4 200706c4 200706cc 200706cc     ... ... ... ... 
200706dc:	200706d4 200706d4 200706dc 200706dc     ... ... ... ... 
200706ec:	200706e4 200706e4 200706ec 200706ec     ... ... ... ... 
200706fc:	200706f4 200706f4 200706fc 200706fc     ... ... ... ... 
2007070c:	20070704 20070704 2007070c 2007070c     ... ... ... ... 
2007071c:	20070714 20070714 2007071c 2007071c     ... ... ... ... 
2007072c:	20070724 20070724 2007072c 2007072c     $.. $.. ,.. ,.. 
2007073c:	20070734 20070734 2007073c 2007073c     4.. 4.. <.. <.. 
2007074c:	20070744 20070744 2007074c 2007074c     D.. D.. L.. L.. 
2007075c:	20070754 20070754 2007075c 2007075c     T.. T.. \.. \.. 
2007076c:	20070764 20070764 2007076c 2007076c     d.. d.. l.. l.. 
2007077c:	20070774 20070774 2007077c 2007077c     t.. t.. |.. |.. 
2007078c:	20070784 20070784 2007078c 2007078c     ... ... ... ... 
2007079c:	20070794 20070794 2007079c 2007079c     ... ... ... ... 
200707ac:	200707a4 200707a4 200707ac 200707ac     ... ... ... ... 
200707bc:	200707b4 200707b4 200707bc 200707bc     ... ... ... ... 
200707cc:	200707c4 200707c4 200707cc 200707cc     ... ... ... ... 
200707dc:	200707d4 200707d4 200707dc 200707dc     ... ... ... ... 
200707ec:	200707e4 200707e4 200707ec 200707ec     ... ... ... ... 
200707fc:	200707f4 200707f4 200707fc 200707fc     ... ... ... ... 
2007080c:	20070804 20070804 2007080c 2007080c     ... ... ... ... 
2007081c:	20070814 20070814 2007081c 2007081c     ... ... ... ... 
2007082c:	20070824 20070824 2007082c 2007082c     $.. $.. ,.. ,.. 
2007083c:	20070834 20070834 2007083c 2007083c     4.. 4.. <.. <.. 
2007084c:	20070844 20070844 2007084c 2007084c     D.. D.. L.. L.. 
2007085c:	20070854 20070854 2007085c 2007085c     T.. T.. \.. \.. 
2007086c:	20070864 20070864 2007086c 2007086c     d.. d.. l.. l.. 
2007087c:	20070874 20070874 2007087c 2007087c     t.. t.. |.. |.. 
2007088c:	20070884 20070884 2007088c 2007088c     ... ... ... ... 
2007089c:	20070894 20070894 2007089c 2007089c     ... ... ... ... 
200708ac:	200708a4 200708a4 200708ac 200708ac     ... ... ... ... 
200708bc:	200708b4 200708b4 200708bc 200708bc     ... ... ... ... 
200708cc:	200708c4 200708c4 200708cc 200708cc     ... ... ... ... 
200708dc:	200708d4 200708d4 200708dc 200708dc     ... ... ... ... 
200708ec:	200708e4 200708e4 200708ec 200708ec     ... ... ... ... 
200708fc:	200708f4 200708f4 200708fc 200708fc     ... ... ... ... 
2007090c:	20070904 20070904 2007090c 2007090c     ... ... ... ... 
2007091c:	20070914 20070914 2007091c 2007091c     ... ... ... ... 
2007092c:	20070924 20070924 2007092c 2007092c     $.. $.. ,.. ,.. 
2007093c:	20070934 20070934 2007093c 2007093c     4.. 4.. <.. <.. 
2007094c:	20070944 20070944 2007094c 2007094c     D.. D.. L.. L.. 
2007095c:	20070954 20070954 2007095c 2007095c     T.. T.. \.. \.. 

2007096c <__malloc_trim_threshold>:
2007096c:	00020000                                ....

20070970 <__malloc_sbrk_base>:
20070970:	ffffffff                                ....
